(lp0
(lp1
I1333
aF2.6857624262847515
aa(lp2
I2213
aF3.874062968515742
aa(lp3
I2787
aF3.044362292051756
aa(lp4
I2976
aF3.485663082437276
aa(lp5
I3321
aF2.5478816018572257
aa(lp6
I3458
aF3.215780998389694
aa(lp7
I3595
aF3.0701754385964914
aa(lp8
I3998
aF4.697488584474886
aa(lp9
I4597
aF3.1336206896551726
aa(lp10
I4905
aF3.2443857331571997
aa(lp11
I5530
aF3.9248366013071894
aa(lp12
I5652
aF3.5250836120401337
aa(lp13
I5980
aF3.758787878787879
aa(lp14
I6206
aF3.7085346215781
aa(lp15
I6629
aF3.177941176470588
aa(lp16
I7576
aF3.73781512605042
aa(lp17
I8121
aF2.256923076923077
aa(lp18
I8200
aF3.3150470219435735
aa(lp19
I8660
aF3.307032590051458
aa(lp20
I9557
aF2.9161849710982657
aa(lp21
I10268
aF3.1833180568285977
aa(lp22
I10374
aF4.016831683168316
aa(lp23
I10679
aF3.6656282450674973
aa(lp24
I10897
aF3.2287581699346406
aa(lp25
I10947
aF2.8577348066298343
aa(lp26
I11043
aF3.7897033158813263
aa(lp27
I11796
aF2.9808429118773945
aa(lp28
I12812
aF3.4654654654654653
aa(lp29
I13432
aF3.6759941089837995
aa(lp30
I14642
aF3.8385416666666665
aa(lp31
I14690
aF3.535820895522388
aa(lp32
I15420
aF2.789473684210526
aa(lp33
I15737
aF3.238655462184874
aa(lp34
I16272
aF2.8164584230934944
aa(lp35
I16273
aF3.444985394352483
aa(lp36
I16558
aF3.3570247933884296
aa(lp37
I17691
aF3.2162162162162162
aa(lp38
I17864
aF3.3139896373056996
aa(lp39
I18907
aF2.728937728937729
aa(lp40
I19930
aF3.5467532467532465
aa(lp41
I19938
aF3.258503401360544
aa(lp42
I20392
aF4.0
aa(lp43
I20774
aF3.1728971962616823
aa(lp44
I21364
aF2.938833570412518
aa(lp45
I21705
aF2.7716535433070866
aa(lp46
I21823
aF3.3728222996515678
aa(lp47
I22718
aF3.486792452830189
aa(lp48
I25049
aF2.524087591240876
aa(lp49
I26124
aF3.262975778546713
aa(lp50
I27061
aF4.973240832507433
aa(lp51
I27434
aF2.962894248608534
aa(lp52
I29815
aF4.1609375
aa(lp53
I30288
aF2.749656121045392
aa(lp54
I32885
aF2.957910014513788
aa(lp55
I32902
aF3.0037593984962405
aa(lp56
I33430
aF3.138364779874214
aa(lp57
I33612
aF3.1627118644067798
aa(lp58
I34669
aF4.041522491349481
aa(lp59
I35036
aF3.2110091743119265
aa(lp60
I36478
aF3.4642857142857144
aa(lp61
I37188
aF3.745222929936306
aa(lp62
I37797
aF3.6205287713841368
aa(lp63
I38879
aF3.383939774153074
aa(lp64
I39242
aF3.0140056022408963
aa(lp65
I39297
aF3.1426533523537805
aa(lp66
I39375
aF3.597063621533442
aa(lp67
I39490
aF3.984536082474227
aa(lp68
I40563
aF3.4876373626373627
aa(lp69
I41422
aF3.8947368421052633
aa(lp70
I42072
aF2.782608695652174
aa(lp71
I42487
aF3.8337662337662337
aa(lp72
I43177
aF2.533428165007112
aa(lp73
I43530
aF3.0478527607361965
aa(lp74
I43729
aF3.7137809187279154
aa(lp75
I43751
aF3.4164810690423164
aa(lp76
I44434
aF2.399641577060932
aa(lp77
I44490
aF3.2823920265780733
aa(lp78
I44734
aF3.08355091383812
aa(lp79
I45207
aF3.865558912386707
aa(lp80
I45392
aF3.868292682926829
aa(lp81
I46036
aF3.7070524412296564
aa(lp82
I46650
aF3.057842046718576
aa(lp83
I47312
aF3.031772575250836
aa(lp84
I47344
aF3.20442930153322
aa(lp85
I47411
aF3.437017994858612
aa(lp86
I48607
aF3.4743589743589745
aa(lp87
I49142
aF3.5411954765751212
aa(lp88
I49355
aF3.452149791955617
aa(lp89
I49585
aF2.7126068376068377
aa(lp90
I49890
aF4.533127889060093
aa(lp91
I50123
aF2.8244837758112094
aa(lp92
I50214
aF3.7480680061823803
aa(lp93
I50259
aF3.364912280701754
aa(lp94
I50400
aF4.122994652406417
aa(lp95
I52352
aF3.457627118644068
aa(lp96
I53694
aF3.3433268858800775
aa(lp97
I54040
aF2.832512315270936
aa(lp98
I54870
aF2.990084985835694
aa(lp99
I55339
aF4.207399103139013
aa(lp100
I56854
aF2.654300168634064
aa(lp101
I57186
aF3.0716981132075474
aa(lp102
I57347
aF3.7697594501718212
aa(lp103
I57633
aF2.7230632235084595
aa(lp104
I58485
aF3.485215053763441
aa(lp105
I59218
aF2.911671924290221
aa(lp106
I59913
aF3.502994011976048
aa(lp107
I61472
aF2.884318766066838
aa(lp108
I62346
aF3.2931654676258995
aa(lp109
I62361
aF3.2718078381795195
aa(lp110
I64765
aF3.2038709677419357
aa(lp111
I64996
aF3.2165820642978002
aa(lp112
I66109
aF2.76027397260274
aa(lp113
I66885
aF3.4554621848739497
aa(lp114
I67134
aF2.5703125
aa(lp115
I67769
aF3.2591911764705883
aa(lp116
I67900
aF2.9107438016528926
aa(lp117
I69801
aF3.310344827586207
aa(lp118
I70476
aF3.5682574916759155
aa(lp119
I70483
aF3.382911392405063
aa(lp120
I70893
aF3.526002971768202
aa(lp121
I71594
aF2.7763248451479696
aa(lp122
I71743
aF3.774099318403116
aa(lp123
I72607
aF3.051980198019802
aa(lp124
I73103
aF3.6017441860465116
aa(lp125
I74320
aF3.759961127308066
aa(lp126
I74427
aF4.017991004497751
aa(lp127
I74441
aF3.594972067039106
aa(lp128
I74533
aF4.148601398601398
aa(lp129
I75384
aF3.3857868020304567
aa(lp130
I75818
aF4.0256410256410255
aa(lp131
I75976
aF3.359964881474978
aa(lp132
I76196
aF2.8881875563570785
aa(lp133
I76916
aF3.235059760956175
aa(lp134
I78404
aF3.003987240829346
aa(lp135
I78846
aF3.1917613636363638
aa(lp136
I78885
aF3.4934210526315788
aa(lp137
I79380
aF2.5133079847908744
aa(lp138
I80354
aF3.0029673590504453
aa(lp139
I80548
aF3.113902847571189
aa(lp140
I80683
aF2.532450331125828
aa(lp141
I84208
aF3.850987432675045
aa(lp142
I84213
aF3.684474123539232
aa(lp143
I86246
aF3.533884297520661
aa(lp144
I86365
aF4.078328981723238
aa(lp145
I87113
aF2.9703808180535964
aa(lp146
I87360
aF3.7475083056478407
aa(lp147
I88188
aF3.218543046357616
aa(lp148
I88283
aF3.866566716641679
aa(lp149
I90362
aF2.4160839160839163
aa(lp150
I90900
aF3.8318002628120893
aa(lp151
I91234
aF3.374011299435028
aa(lp152
I92786
aF3.316976127320955
aa(lp153
I93124
aF2.98
aa(lp154
I95100
aF3.0977337110481584
aa(lp155
I95146
aF2.8416370106761564
aa(lp156
I95194
aF3.7716390423572745
aa(lp157
I96133
aF3.1545293072824157
aa(lp158
I97578
aF2.762582056892779
aa(lp159
I97608
aF3.719360568383659
aa(lp160
I97893
aF3.058881256133464
aa(lp161
I98586
aF3.4285714285714284
aa(lp162
I99400
aF4.838304552590267
aa(lp163
I99844
aF3.94205298013245
aa(lp164
I100495
aF4.598198198198198
aa(lp165
I100712
aF3.0307467057101025
aa(lp166
I100943
aF3.091417910447761
aa(lp167
I101554
aF2.918759231905465
aa(lp168
I101564
aF3.5192604006163326
aa(lp169
I101807
aF3.5464912280701753
aa(lp170
I102028
aF4.2525906735751295
aa(lp171
I103619
aF3.5330578512396693
aa(lp172
I104237
aF4.88385269121813
aa(lp173
I104462
aF3.1916817359855334
aa(lp174
I104724
aF2.301013024602026
aa(lp175
I105532
aF3.221757322175732
aa(lp176
I105802
aF3.2315112540192925
aa(lp177
I105982
aF3.7014388489208634
aa(lp178
I106870
aF3.6977611940298507
aa(lp179
I107776
aF3.1658031088082903
aa(lp180
I107840
aF3.0880398671096345
aa(lp181
I108936
aF3.9460726846424383
aa(lp182
I109079
aF2.954391891891892
aa(lp183
I109112
aF3.65814696485623
aa(lp184
I109177
aF3.69908466819222
aa(lp185
I110260
aF3.397085610200364
aa(lp186
I110288
aF3.1406896551724137
aa(lp187
I110938
aF3.9172413793103447
aa(lp188
I111033
aF3.1386138613861387
aa(lp189
I111086
aF2.806941431670282
aa(lp190
I111693
aF3.385135135135135
aa(lp191
I111736
aF3.1059782608695654
aa(lp192
I112320
aF4.4781818181818185
aa(lp193
I112449
aF3.1789819376026274
aa(lp194
I113369
aF3.5175600739371533
aa(lp195
I114130
aF2.51252408477842
aa(lp196
I115097
aF3.6993127147766325
aa(lp197
I116140
aF3.214386459802539
aa(lp198
I116252
aF3.729559748427673
aa(lp199
I116563
aF2.982174688057041
aa(lp200
I116761
aF3.618705035971223
aa(lp201
I118341
aF3.3739703459637562
aa(lp202
I119287
aF3.2393397524071528
aa(lp203
I119790
aF3.380782918149466
aa(lp204
I121182
aF3.2166285278413427
aa(lp205
I121324
aF3.261986301369863
aa(lp206
I121699
aF3.3657657657657656
aa(lp207
I122019
aF3.0649681528662422
aa(lp208
I122057
aF3.7152658662092626
aa(lp209
I122197
aF2.8477011494252875
aa(lp210
I123384
aF3.6539792387543253
aa(lp211
I124342
aF3.5517241379310347
aa(lp212
I124699
aF3.2510822510822512
aa(lp213
I124810
aF3.1088560885608856
aa(lp214
I125296
aF3.410358565737052
aa(lp215
I125687
aF3.2276785714285716
aa(lp216
I125765
aF2.407766990291262
aa(lp217
I126216
aF3.2386363636363638
aa(lp218
I128040
aF3.800604229607251
aa(lp219
I128311
aF2.6331828442437923
aa(lp220
I128348
aF3.136828644501279
aa(lp221
I128389
aF3.2691029900332227
aa(lp222
I128611
aF2.907103825136612
aa(lp223
I129766
aF3.2286874154262515
aa(lp224
I129796
aF4.206896551724138
aa(lp225
I131752
aF3.1922428330522767
aa(lp226
I133060
aF2.9635036496350367
aa(lp227
I133129
aF3.2545454545454544
aa(lp228
I133670
aF2.928481806775408
aa(lp229
I133993
aF2.4207221350078494
aa(lp230
I134640
aF3.283121597096189
aa(lp231
I136030
aF3.3333333333333335
aa(lp232
I136058
aF4.10632183908046
aa(lp233
I136477
aF3.760649087221095
aa(lp234
I137309
aF3.4186471663619744
aa(lp235
I137602
aF2.848617176128093
aa(lp236
I138106
aF3.3859857482185274
aa(lp237
I138835
aF2.2022222222222223
aa(lp238
I139006
aF3.089678510998308
aa(lp239
I139107
aF3.2460456942003515
aa(lp240
I139212
aF2.8654104979811574
aa(lp241
I139297
aF3.4945454545454546
aa(lp242
I140498
aF3.132930513595166
aa(lp243
I142492
aF3.3772290809327847
aa(lp244
I144577
aF3.5135135135135136
aa(lp245
I145941
aF3.55668358714044
aa(lp246
I146587
aF2.9354275741710296
aa(lp247
I147386
aF3.5794701986754967
aa(lp248
I147653
aF3.667207792207792
aa(lp249
I149575
aF4.455974842767295
aa(lp250
I150038
aF3.8489984591679507
aa(lp251
I150663
aF3.734657039711191
aa(lp252
I151004
aF3.599601593625498
aa(lp253
I151153
aF3.800953516090584
aa(lp254
I151821
aF3.3230309072781656
aa(lp255
I152063
aF3.147517730496454
aa(lp256
I152807
aF4.03899721448468
aa(lp257
I152858
aF3.044930875576037
aa(lp258
I152955
aF3.511764705882353
aa(lp259
I154591
aF3.4311475409836065
aa(lp260
I154669
aF3.287425149700599
aa(lp261
I155342
aF2.3946869070208727
aa(lp262
I155620
aF3.893653516295026
aa(lp263
I156622
aF3.5727848101265822
aa(lp264
I157667
aF2.5035349567949723
aa(lp265
I158086
aF3.1319796954314723
aa(lp266
I158197
aF2.6413793103448278
aa(lp267
I158607
aF3.4121306376360807
aa(lp268
I159159
aF2.9494071146245058
aa(lp269
I162348
aF3.3577235772357725
aa(lp270
I163893
aF4.325383304940375
aa(lp271
I164016
aF3.2681660899653977
aa(lp272
I164532
aF3.857632933104631
aa(lp273
I164647
aF3.8219424460431655
aa(lp274
I164845
aF2.128712871287129
aa(lp275
I165060
aF3.2750677506775068
aa(lp276
I165247
aF4.817635270541082
aa(lp277
I165288
aF3.066213921901528
aa(lp278
I165374
aF3.638136511375948
aa(lp279
I165720
aF3.4676870748299318
aa(lp280
I166041
aF3.485995457986374
aa(lp281
I166980
aF3.5131810193321615
aa(lp282
I167227
aF3.0476190476190474
aa(lp283
I167447
aF3.5697674418604652
aa(lp284
I168190
aF3.559792027729636
aa(lp285
I168523
aF2.3152454780361755
aa(lp286
I168892
aF2.8375451263537905
aa(lp287
I169054
aF2.9412698412698415
aa(lp288
I169281
aF3.1543624161073827
aa(lp289
I169311
aF3.3316582914572863
aa(lp290
I170178
aF3.3682539682539683
aa(lp291
I170248
aF3.738625363020329
aa(lp292
I170551
aF2.195227765726681
aa(lp293
I172217
aF3.0774962742175855
aa(lp294
I173086
aF4.212837837837838
aa(lp295
I174783
aF3.476923076923077
aa(lp296
I178266
aF3.653958944281525
aa(lp297
I178588
aF3.5796296296296295
aa(lp298
I178860
aF2.808378588052754
aa(lp299
I181207
aF4.450832072617247
aa(lp300
I181364
aF3.8213689482470783
aa(lp301
I181592
aF3.285932721712538
aa(lp302
I182134
aF3.397163120567376
aa(lp303
I182203
aF3.2587486744432663
aa(lp304
I182445
aF3.691335740072202
aa(lp305
I183674
aF3.655688622754491
aa(lp306
I184705
aF3.2881165919282513
aa(lp307
I184888
aF3.191646191646192
aa(lp308
I185495
aF3.0902140672782874
aa(lp309
I187322
aF3.2770083102493075
aa(lp310
I187896
aF3.0786290322580645
aa(lp311
I188190
aF3.3536121673003803
aa(lp312
I188613
aF3.0761979575805185
aa(lp313
I189443
aF3.265845070422535
aa(lp314
I189814
aF3.5953565505804312
aa(lp315
I189887
aF3.664798206278027
aa(lp316
I190136
aF3.431654676258993
aa(lp317
I190474
aF3.244565217391304
aa(lp318
I190547
aF2.574074074074074
aa(lp319
I191666
aF4.167844522968198
aa(lp320
I191869
aF3.4392678868552413
aa(lp321
I192889
aF3.148738379814077
aa(lp322
I193560
aF2.8530884808013357
aa(lp323
I194044
aF3.1943048576214403
aa(lp324
I194528
aF3.146924829157175
aa(lp325
I197025
aF3.3824027072758036
aa(lp326
I197101
aF3.404466501240695
aa(lp327
I198655
aF3.7781512605042016
aa(lp328
I199257
aF3.247422680412371
aa(lp329
I199435
aF2.906629318394024
aa(lp330
I199769
aF3.279521674140508
aa(lp331
I200098
aF3.8012326656394455
aa(lp332
I200177
aF3.629568106312292
aa(lp333
I200255
aF3.5330097087378642
aa(lp334
I200427
aF3.9743589743589745
aa(lp335
I200734
aF3.9060955518945635
aa(lp336
I200805
aF3.2060737527114966
aa(lp337
I201254
aF3.6198630136986303
aa(lp338
I201707
aF3.6248294679399726
aa(lp339
I202114
aF3.3315118397085612
aa(lp340
I202678
aF2.6185286103542236
aa(lp341
I203369
aF3.7412353923205344
aa(lp342
I203738
aF3.5438813349814584
aa(lp343
I205023
aF4.8640625
aa(lp344
I205438
aF4.031045751633987
aa(lp345
I206272
aF3.8577712609970676
aa(lp346
I206893
aF3.5379812695109263
aa(lp347
I206954
aF3.277049180327869
aa(lp348
I209494
aF4.065250379362671
aa(lp349
I209736
aF3.300359712230216
aa(lp350
I210185
aF3.2889561270801817
aa(lp351
I212479
aF4.096214511041009
aa(lp352
I212794
aF3.2187981510015407
aa(lp353
I213486
aF2.785060975609756
aa(lp354
I213704
aF3.2634920634920634
aa(lp355
I213750
aF3.928358208955224
aa(lp356
I214254
aF4.118870728083209
aa(lp357
I214501
aF3.6998284734133793
aa(lp358
I215948
aF3.7150170648464163
aa(lp359
I216059
aF2.4767123287671233
aa(lp360
I217619
aF4.178571428571429
aa(lp361
I218199
aF2.779109589041096
aa(lp362
I219174
aF3.306878306878307
aa(lp363
I219481
aF3.053833605220228
aa(lp364
I219888
aF3.866369710467706
aa(lp365
I220512
aF3.698046181172291
aa(lp366
I221091
aF3.1545454545454548
aa(lp367
I221926
aF3.8105726872246697
aa(lp368
I223043
aF3.7526315789473683
aa(lp369
I223423
aF3.0161001788908766
aa(lp370
I224252
aF3.405688622754491
aa(lp371
I224795
aF2.676148796498906
aa(lp372
I225972
aF3.459016393442623
aa(lp373
I226048
aF3.0222513089005236
aa(lp374
I227076
aF3.065693430656934
aa(lp375
I227151
aF2.926791277258567
aa(lp376
I227295
aF4.086238532110092
aa(lp377
I227799
aF3.219832735961768
aa(lp378
I228978
aF3.5452292441140023
aa(lp379
I229439
aF3.7940663176265272
aa(lp380
I230112
aF2.0394944707740916
aa(lp381
I230211
aF3.422680412371134
aa(lp382
I230265
aF3.1150537634408604
aa(lp383
I230966
aF3.0388007054673722
aa(lp384
I232877
aF3.367305751765893
aa(lp385
I234275
aF3.055091819699499
aa(lp386
I234606
aF3.0252252252252254
aa(lp387
I234639
aF3.456400742115028
aa(lp388
I234798
aF3.4828711256117457
aa(lp389
I235691
aF3.437389770723104
aa(lp390
I235782
aF3.1836007130124777
aa(lp391
I235789
aF3.7890679747722493
aa(lp392
I236160
aF3.0472813238770686
aa(lp393
I236815
aF3.507168458781362
aa(lp394
I237263
aF2.175
aa(lp395
I237286
aF2.883018867924528
aa(lp396
I237449
aF3.158959537572254
aa(lp397
I237672
aF3.7662337662337664
aa(lp398
I238740
aF3.2416020671834627
aa(lp399
I239178
aF3.011173184357542
aa(lp400
I239518
aF2.987519500780031
aa(lp401
I240447
aF3.051693404634581
aa(lp402
I240748
aF3.490740740740741
aa(lp403
I240869
aF3.0652173913043477
aa(lp404
I240923
aF3.0400372439478587
aa(lp405
I241068
aF3.3629943502824857
aa(lp406
I241634
aF3.077231695085256
aa(lp407
I242425
aF2.4347014925373136
aa(lp408
I242681
aF3.41031652989449
aa(lp409
I243304
aF3.832020997375328
aa(lp410
I243612
aF3.0077922077922077
aa(lp411
I245369
aF3.423841059602649
aa(lp412
I245371
aF3.568480300187617
aa(lp413
I246686
aF3.605786618444846
aa(lp414
I246980
aF3.4379457917261056
aa(lp415
I247446
aF3.6170839469808542
aa(lp416
I247794
aF2.966435185185185
aa(lp417
I247932
aF3.215528781793842
aa(lp418
I248904
aF3.411504424778761
aa(lp419
I248976
aF3.1135972461273664
aa(lp420
I249029
aF2.80327868852459
aa(lp421
I249471
aF2.810641627543036
aa(lp422
I250509
aF2.8971098265895954
aa(lp423
I252054
aF3.254606365159129
aa(lp424
I252119
aF3.132427843803056
aa(lp425
I253275
aF4.213815789473684
aa(lp426
I253434
aF3.806678383128295
aa(lp427
I254789
aF3.7025210084033615
aa(lp428
I255357
aF3.3711201079622133
aa(lp429
I256057
aF3.5635738831615122
aa(lp430
I256278
aF3.3006211180124225
aa(lp431
I256465
aF3.345622119815668
aa(lp432
I256676
aF3.4226125137211856
aa(lp433
I256796
aF3.691151919866444
aa(lp434
I257622
aF2.7283126787416587
aa(lp435
I257710
aF3.692182410423453
aa(lp436
I257923
aF3.9395866454689985
aa(lp437
I258675
aF3.431784107946027
aa(lp438
I259431
aF3.042929292929293
aa(lp439
I259497
aF3.3676731793960926
aa(lp440
I260616
aF3.3886861313868613
aa(lp441
I262411
aF4.001204819277109
aa(lp442
I263031
aF3.851602023608769
aa(lp443
I263291
aF3.4937185929648242
aa(lp444
I264160
aF3.832797427652733
aa(lp445
I264856
aF4.357710651828299
aa(lp446
I265257
aF4.216
aa(lp447
I266172
aF3.4688995215311005
aa(lp448
I267378
aF3.5492772667542707
aa(lp449
I267841
aF3.9306049822064058
aa(lp450
I268719
aF4.361071932299013
aa(lp451
I269474
aF3.358910891089109
aa(lp452
I269689
aF3.2984375
aa(lp453
I269850
aF3.7703180212014136
aa(lp454
I270174
aF3.2651757188498403
aa(lp455
I270523
aF3.2256
aa(lp456
I270702
aF3.9347826086956523
aa(lp457
I270890
aF3.8205607476635515
aa(lp458
I271128
aF3.8014311270125223
aa(lp459
I271346
aF3.0104712041884816
aa(lp460
I271355
aF2.75
aa(lp461
I271453
aF3.2791519434628977
aa(lp462
I272280
aF2.440443213296399
aa(lp463
I272840
aF3.8390578999018645
aa(lp464
I273019
aF3.6085626911314983
aa(lp465
I273541
aF3.198473282442748
aa(lp466
I273814
aF4.131627056672761
aa(lp467
I273945
aF2.8102409638554215
aa(lp468
I274191
aF3.4028132992327365
aa(lp469
I275282
aF3.9874015748031497
aa(lp470
I275338
aF3.954486345903771
aa(lp471
I275600
aF3.594170403587444
aa(lp472
I275687
aF3.2558528428093645
aa(lp473
I276869
aF3.4394812680115274
aa(lp474
I277223
aF3.0175131348511384
aa(lp475
I277837
aF2.4114785992217898
aa(lp476
I277916
aF2.6931818181818183
aa(lp477
I278223
aF3.3812405446293496
aa(lp478
I278882
aF3.237762237762238
aa(lp479
I279265
aF3.890961262553802
aa(lp480
I279960
aF3.6523887973640856
aa(lp481
I279966
aF3.1288546255506606
aa(lp482
I280112
aF3.3664688427299705
aa(lp483
I280120
aF2.8558875219683655
aa(lp484
I280167
aF3.5804749340369395
aa(lp485
I280260
aF3.2664796633941093
aa(lp486
I280978
aF4.014802631578948
aa(lp487
I281729
aF3.4954407294832825
aa(lp488
I282390
aF3.876383763837638
aa(lp489
I282427
aF3.2857142857142856
aa(lp490
I282654
aF2.931434599156118
aa(lp491
I282887
aF3.558398220244716
aa(lp492
I282953
aF3.257956448911223
aa(lp493
I283468
aF3.1621129326047357
aa(lp494
I285031
aF3.671768707482993
aa(lp495
I285174
aF4.114921223354958
aa(lp496
I285975
aF4.6786206896551725
aa(lp497
I286106
aF3.3986599664991624
aa(lp498
I286684
aF2.773913043478261
aa(lp499
I286783
aF3.6149732620320854
aa(lp500
I287545
aF3.838957055214724
aa(lp501
I287566
aF4.401658767772512
aa(lp502
I287901
aF3.4266666666666667
aa(lp503
I288420
aF3.4242803504380475
aa(lp504
I289162
aF3.7295081967213113
aa(lp505
I289710
aF4.025276461295419
aa(lp506
I290182
aF3.2630744849445326
aa(lp507
I290342
aF3.638709677419355
aa(lp508
I290360
aF2.7579250720461097
aa(lp509
I290700
aF3.5417633410672855
aa(lp510
I290874
aF3.247011952191235
aa(lp511
I290916
aF3.0071138211382116
aa(lp512
I291198
aF3.2800687285223367
aa(lp513
I291620
aF3.7271157167530227
aa(lp514
I292335
aF3.115569823434992
aa(lp515
I294040
aF2.9187898089171975
aa(lp516
I294330
aF2.809792843691149
aa(lp517
I295708
aF3.301242236024845
aa(lp518
I295718
aF3.0427586206896553
aa(lp519
I296452
aF2.1364764267990073
aa(lp520
I297100
aF3.4293015332197614
aa(lp521
I297453
aF3.1725955204216074
aa(lp522
I297901
aF3.2854671280276815
aa(lp523
I298221
aF3.070909090909091
aa(lp524
I299805
aF3.558421851289833
aa(lp525
I299857
aF3.0364188163884673
aa(lp526
I300074
aF2.546594982078853
aa(lp527
I300435
aF3.283485045513654
aa(lp528
I301019
aF4.285491419656786
aa(lp529
I301047
aF3.26218487394958
aa(lp530
I301086
aF3.3242375601926164
aa(lp531
I302344
aF3.489622641509434
aa(lp532
I302425
aF3.214501510574018
aa(lp533
I303002
aF3.474964234620887
aa(lp534
I303087
aF3.171334431630972
aa(lp535
I303643
aF2.408839779005525
aa(lp536
I303948
aF3.7618453865336656
aa(lp537
I303969
aF3.0748091603053433
aa(lp538
I305111
aF2.9969558599695585
aa(lp539
I305344
aF1.9067625899280576
aa(lp540
I305604
aF3.787742899850523
aa(lp541
I306466
aF2.8950819672131147
aa(lp542
I306564
aF3.663247863247863
aa(lp543
I306569
aF2.8727556596409056
aa(lp544
I306658
aF3.160427807486631
aa(lp545
I307427
aF3.067001675041876
aa(lp546
I308307
aF3.5207207207207207
aa(lp547
I309424
aF3.3337078651685395
aa(lp548
I310101
aF3.478743068391867
aa(lp549
I310187
aF2.918181818181818
aa(lp550
I310887
aF3.5667001003009027
aa(lp551
I311027
aF3.1471571906354514
aa(lp552
I311070
aF1.887741935483871
aa(lp553
I311875
aF3.237691001697793
aa(lp554
I312695
aF3.5205223880597014
aa(lp555
I312937
aF3.261694058154235
aa(lp556
I313419
aF4.042121684867395
aa(lp557
I314110
aF4.3709239130434785
aa(lp558
I315168
aF3.315403422982885
aa(lp559
I315833
aF3.6093943139678615
aa(lp560
I315894
aF3.306949806949807
aa(lp561
I316155
aF2.707782672540382
aa(lp562
I317504
aF4.5697368421052635
aa(lp563
I317779
aF3.0011933174224343
aa(lp564
I318409
aF2.784855769230769
aa(lp565
I318457
aF3.4185750636132317
aa(lp566
I318939
aF3.4660347551342814
aa(lp567
I319058
aF2.9783783783783786
aa(lp568
I319119
aF3.305379746835443
aa(lp569
I319647
aF3.2020033388981637
aa(lp570
I320177
aF3.7639097744360903
aa(lp571
I320226
aF3.1322463768115942
aa(lp572
I320314
aF3.6275
aa(lp573
I320856
aF2.6965376782077395
aa(lp574
I320939
aF3.9202127659574466
aa(lp575
I321089
aF3.6091370558375635
aa(lp576
I321679
aF3.360576923076923
aa(lp577
I322009
aF3.2713178294573644
aa(lp578
I322178
aF1.4641068447412353
aa(lp579
I324080
aF3.664406779661017
aa(lp580
I324162
aF4.129657228017884
aa(lp581
I324510
aF2.0950520833333335
aa(lp582
I325073
aF3.008530805687204
aa(lp583
I325844
aF3.8685393258426966
aa(lp584
I326121
aF2.5870736086175943
aa(lp585
I326356
aF2.8591983556012335
aa(lp586
I326502
aF3.978643216080402
aa(lp587
I326804
aF3.381205673758865
aa(lp588
I327122
aF3.523854961832061
aa(lp589
I327577
aF3.2691131498470947
aa(lp590
I328212
aF3.280046674445741
aa(lp591
I328642
aF3.323809523809524
aa(lp592
I328651
aF3.6179159049360146
aa(lp593
I329475
aF3.390516039051604
aa(lp594
I329958
aF2.3838652482269502
aa(lp595
I330424
aF3.551324503311258
aa(lp596
I330526
aF3.687603305785124
aa(lp597
I330922
aF3.9782923299565844
aa(lp598
I331341
aF3.5741379310344827
aa(lp599
I332079
aF3.752532561505065
aa(lp600
I332300
aF2.675
aa(lp601
I332471
aF3.465195246179966
aa(lp602
I332698
aF3.358807082945014
aa(lp603
I332923
aF3.3948967193195627
aa(lp604
I333573
aF3.7536
aa(lp605
I333843
aF3.3643926788685525
aa(lp606
I334185
aF3.228723404255319
aa(lp607
I334643
aF2.5457589285714284
aa(lp608
I336595
aF3.4935779816513763
aa(lp609
I336847
aF4.036974789915966
aa(lp610
I337793
aF3.732283464566929
aa(lp611
I338723
aF3.9822294022617126
aa(lp612
I339547
aF3.6604127579737336
aa(lp613
I340479
aF2.522727272727273
aa(lp614
I340492
aF2.8381601362862012
aa(lp615
I341649
aF2.401426718547341
aa(lp616
I341814
aF2.9782608695652173
aa(lp617
I342330
aF3.2607260726072607
aa(lp618
I342510
aF3.2828729281767957
aa(lp619
I342877
aF3.2943854324734447
aa(lp620
I345035
aF3.4663461538461537
aa(lp621
I345588
aF3.828877005347594
aa(lp622
I345704
aF3.130935251798561
aa(lp623
I347276
aF3.251889168765743
aa(lp624
I348960
aF2.6474908200734393
aa(lp625
I349331
aF2.874413145539906
aa(lp626
I349411
aF3.2590361445783134
aa(lp627
I349572
aF3.1529294935451837
aa(lp628
I350009
aF4.802861685214626
aa(lp629
I350145
aF3.5859030837004404
aa(lp630
I350266
aF2.7576335877862594
aa(lp631
I351213
aF3.4365284974093266
aa(lp632
I351328
aF3.4923312883435584
aa(lp633
I353820
aF3.7001795332136447
aa(lp634
I354091
aF3.9203389830508475
aa(lp635
I354269
aF3.828897338403042
aa(lp636
I356035
aF2.8981191222570533
aa(lp637
I356103
aF3.5142857142857142
aa(lp638
I356615
aF2.638811513463324
aa(lp639
I357056
aF3.225225225225225
aa(lp640
I357087
aF3.3290203327171906
aa(lp641
I359063
aF3.3219424460431655
aa(lp642
I359681
aF3.4246575342465753
aa(lp643
I360005
aF3.143020594965675
aa(lp644
I360264
aF3.363367799113737
aa(lp645
I360412
aF4.094754653130288
aa(lp646
I360830
aF2.8683229813664597
aa(lp647
I361070
aF3.5773710482529117
aa(lp648
I361375
aF3.4092570036540804
aa(lp649
I361407
aF3.304291287386216
aa(lp650
I361630
aF2.778688524590164
aa(lp651
I361702
aF3.3636363636363638
aa(lp652
I361886
aF2.8973821989528794
aa(lp653
I362038
aF3.731638418079096
aa(lp654
I363868
aF3.802588996763754
aa(lp655
I364238
aF3.994360902255639
aa(lp656
I364376
aF3.7712418300653594
aa(lp657
I364618
aF3.7255813953488373
aa(lp658
I364749
aF3.403256704980843
aa(lp659
I366233
aF3.4907975460122698
aa(lp660
I366565
aF3.5118858954041206
aa(lp661
I369036
aF3.922824302134647
aa(lp662
I369646
aF3.7774936061381075
aa(lp663
I369912
aF3.571656050955414
aa(lp664
I370735
aF2.393646408839779
aa(lp665
I371701
aF2.5316718587746627
aa(lp666
I372095
aF3.189855072463768
aa(lp667
I372743
aF3.5815047021943576
aa(lp668
I374380
aF4.058551617873651
aa(lp669
I374741
aF2.841237113402062
aa(lp670
I375770
aF2.9689213893967095
aa(lp671
I376600
aF3.7604790419161676
aa(lp672
I377334
aF3.171385991058122
aa(lp673
I377907
aF3.98109640831758
aa(lp674
I377937
aF2.7624565469293163
aa(lp675
I378348
aF2.872852233676976
aa(lp676
I378732
aF3.0878378378378377
aa(lp677
I378857
aF3.2669983416252073
aa(lp678
I379499
aF3.118150684931507
aa(lp679
I380236
aF3.348717948717949
aa(lp680
I380354
aF3.2756827048114436
aa(lp681
I380505
aF3.414396887159533
aa(lp682
I381346
aF3.1485943775100402
aa(lp683
I381625
aF3.7594254937163374
aa(lp684
I381828
aF3.848159509202454
aa(lp685
I382138
aF2.66786355475763
aa(lp686
I382186
aF3.18859649122807
aa(lp687
I382234
aF3.7829716193656093
aa(lp688
I382633
aF3.8964968152866244
aa(lp689
I382817
aF4.105121293800539
aa(lp690
I383404
aF2.458274398868458
aa(lp691
I383442
aF3.240625
aa(lp692
I383451
aF3.1874439461883406
aa(lp693
I383702
aF3.4238310708898942
aa(lp694
I383952
aF3.04199066874028
aa(lp695
I384188
aF3.3553571428571427
aa(lp696
I384710
aF3.861654135338346
aa(lp697
I385102
aF3.740143369175627
aa(lp698
I385287
aF3.511290322580645
aa(lp699
I385553
aF3.7
aa(lp700
I385781
aF3.8254237288135595
aa(lp701
I385977
aF3.2677824267782425
aa(lp702
I386947
aF3.143884892086331
aa(lp703
I387106
aF3.3940972222222223
aa(lp704
I387262
aF3.6547406082289804
aa(lp705
I387418
aF1.8167950021792822
aa(lp706
I387633
aF2.8507462686567164
aa(lp707
I388514
aF4.101311084624553
aa(lp708
I388609
aF3.2600349040139616
aa(lp709
I388643
aF2.452054794520548
aa(lp710
I389017
aF3.8143100511073254
aa(lp711
I389391
aF3.5911413969335606
aa(lp712
I389581
aF3.262895174708819
aa(lp713
I390062
aF3.5402298850574714
aa(lp714
I390912
aF4.755102040816326
aa(lp715
I391012
aF3.3322475570032575
aa(lp716
I391521
aF3.382978723404255
aa(lp717
I391708
aF3.4731182795698925
aa(lp718
I392077
aF3.316987740805604
aa(lp719
I392346
aF3.4225122349102772
aa(lp720
I392651
aF3.2909356725146197
aa(lp721
I393945
aF2.194662480376766
aa(lp722
I393966
aF2.91864406779661
aa(lp723
I394895
aF3.9811594202898553
aa(lp724
I395747
aF3.600331674958541
aa(lp725
I396132
aF2.7867950481430537
aa(lp726
I396140
aF2.980848153214774
aa(lp727
I396153
aF3.643911439114391
aa(lp728
I397001
aF3.7072538860103625
aa(lp729
I397077
aF3.032590051457976
aa(lp730
I397212
aF3.1754874651810585
aa(lp731
I397923
aF3.8876221498371337
aa(lp732
I398194
aF4.264808362369338
aa(lp733
I398488
aF3.4181494661921707
aa(lp734
I398661
aF3.183123877917415
aa(lp735
I399971
aF3.642645607107601
aa(lp736
I400076
aF3.559852670349908
aa(lp737
I400440
aF3.29170549860205
aa(lp738
I401047
aF2.6894484412470026
aa(lp739
I401315
aF3.0873949579831934
aa(lp740
I402266
aF3.4027118644067795
aa(lp741
I402377
aF3.151877133105802
aa(lp742
I402413
aF3.202319587628866
aa(lp743
I403915
aF3.0386803185437996
aa(lp744
I406365
aF3.3666121112929623
aa(lp745
I406375
aF2.913249211356467
aa(lp746
I406841
aF2.7103620474406993
aa(lp747
I406948
aF3.7184466019417477
aa(lp748
I407037
aF2.9833795013850417
aa(lp749
I407314
aF3.3444767441860463
aa(lp750
I407877
aF3.3501805054151625
aa(lp751
I408284
aF3.2220447284345046
aa(lp752
I408457
aF2.635122838944495
aa(lp753
I408636
aF3.3720073664825048
aa(lp754
I408645
aF3.391304347826087
aa(lp755
I408765
aF4.446771378708552
aa(lp756
I410206
aF2.948936170212766
aa(lp757
I410446
aF2.8462897526501765
aa(lp758
I411290
aF3.6813104988830974
aa(lp759
I411396
aF4.016233766233766
aa(lp760
I411512
aF3.1296101159114857
aa(lp761
I411705
aF3.734248788368336
aa(lp762
I412439
aF3.1842475386779183
aa(lp763
I412604
aF3.4740259740259742
aa(lp764
I412805
aF3.6129032258064515
aa(lp765
I413855
aF3.720183486238532
aa(lp766
I414536
aF2.6371191135734073
aa(lp767
I415253
aF3.9795275590551182
aa(lp768
I415641
aF3.2226512226512227
aa(lp769
I415672
aF3.7187910643889617
aa(lp770
I416214
aF3.013400335008375
aa(lp771
I416560
aF2.729608938547486
aa(lp772
I417746
aF3.856589147286822
aa(lp773
I418339
aF3.0148247978436657
aa(lp774
I419691
aF3.6074646074646073
aa(lp775
I420266
aF3.8552631578947367
aa(lp776
I422485
aF3.305944055944056
aa(lp777
I423167
aF3.041522491349481
aa(lp778
I423361
aF3.1498637602179835
aa(lp779
I423990
aF3.0643356643356645
aa(lp780
I424202
aF3.282758620689655
aa(lp781
I424513
aF3.4908180300500833
aa(lp782
I424620
aF3.5155709342560555
aa(lp783
I426352
aF3.3632148377125195
aa(lp784
I426362
aF3.211267605633803
aa(lp785
I427186
aF3.705607476635514
aa(lp786
I427485
aF3.6384892086330933
aa(lp787
I427967
aF3.435
aa(lp788
I428688
aF2.9251231527093595
aa(lp789
I428831
aF1.4706896551724138
aa(lp790
I429260
aF2.2579762989972654
aa(lp791
I429876
aF3.3163444639718804
aa(lp792
I430648
aF3.554662379421222
aa(lp793
I431067
aF3.377713458755427
aa(lp794
I431326
aF2.860773480662983
aa(lp795
I431487
aF3.21283255086072
aa(lp796
I432259
aF3.670630202140309
aa(lp797
I433641
aF4.065767284991568
aa(lp798
I433651
aF4.131756756756757
aa(lp799
I434101
aF3.6353591160220993
aa(lp800
I436122
aF3.0548112058465287
aa(lp801
I437239
aF3.4542682926829267
aa(lp802
I437371
aF4.295454545454546
aa(lp803
I437586
aF3.1969532100108813
aa(lp804
I437955
aF3.1203438395415475
aa(lp805
I438189
aF3.431899641577061
aa(lp806
I438340
aF3.312764158918005
aa(lp807
I438674
aF3.6733333333333333
aa(lp808
I439688
aF3.306896551724138
aa(lp809
I439729
aF3.3
aa(lp810
I440463
aF3.37094682230869
aa(lp811
I440852
aF3.6713780918727914
aa(lp812
I441324
aF2.8564273789649417
aa(lp813
I441361
aF3.755787037037037
aa(lp814
I442222
aF3.2466422466422467
aa(lp815
I442234
aF3.358600583090379
aa(lp816
I442276
aF3.04874213836478
aa(lp817
I442813
aF3.6243194192377497
aa(lp818
I442963
aF3.272417707150965
aa(lp819
I443193
aF3.3023622047244094
aa(lp820
I443447
aF3.675925925925926
aa(lp821
I444229
aF3.0210016155088852
aa(lp822
I444566
aF3.149076517150396
aa(lp823
I445423
aF3.5045045045045047
aa(lp824
I445900
aF3.5642857142857145
aa(lp825
I446160
aF3.5914332784184513
aa(lp826
I446163
aF3.5672131147540984
aa(lp827
I447759
aF4.945257797581158
aa(lp828
I447836
aF3.3733766233766236
aa(lp829
I448894
aF3.6139767054908485
aa(lp830
I449597
aF3.9575342465753423
aa(lp831
I451011
aF2.8645833333333335
aa(lp832
I452299
aF3.389214536928488
aa(lp833
I452667
aF3.050463439752832
aa(lp834
I452873
aF3.168965517241379
aa(lp835
I453239
aF3.7099236641221376
aa(lp836
I453585
aF3.4364864864864866
aa(lp837
I454329
aF3.299342105263158
aa(lp838
I454519
aF3.090062111801242
aa(lp839
I455024
aF3.304942166140904
aa(lp840
I456367
aF3.0549450549450547
aa(lp841
I458177
aF3.5259515570934257
aa(lp842
I458190
aF3.3557858376511227
aa(lp843
I459145
aF3.4585987261146496
aa(lp844
I459277
aF3.502454991816694
aa(lp845
I459772
aF3.199630314232902
aa(lp846
I460419
aF3.0318979266347688
aa(lp847
I460446
aF3.3111510791366907
aa(lp848
I461070
aF3.777049180327869
aa(lp849
I461075
aF2.224755700325733
aa(lp850
I461110
aF2.8209876543209877
aa(lp851
I462171
aF2.8155774395702777
aa(lp852
I464571
aF3.2297520661157026
aa(lp853
I464774
aF2.7308673469387754
aa(lp854
I465414
aF2.654263565891473
aa(lp855
I465497
aF3.212978369384359
aa(lp856
I465885
aF2.9035769828926905
aa(lp857
I466121
aF3.7808896210873146
aa(lp858
I466151
aF4.189285714285714
aa(lp859
I466763
aF3.5207956600361663
aa(lp860
I467182
aF3.4542829643888355
aa(lp861
I467885
aF2.924895688456189
aa(lp862
I469021
aF3.484848484848485
aa(lp863
I469045
aF3.5376984126984126
aa(lp864
I470781
aF3.1791808873720138
aa(lp865
I471177
aF2.922818791946309
aa(lp866
I471654
aF3.8743455497382198
aa(lp867
I471880
aF3.484931506849315
aa(lp868
I472332
aF3.858490566037736
aa(lp869
I472452
aF2.7392638036809815
aa(lp870
I472734
aF3.846325167037862
aa(lp871
I473233
aF3.7088388214904677
aa(lp872
I473748
aF2.9728813559322034
aa(lp873
I474700
aF3.24
aa(lp874
I475253
aF4.1415929203539825
aa(lp875
I476512
aF3.9692671394799053
aa(lp876
I476695
aF3.3782894736842106
aa(lp877
I476743
aF3.008116883116883
aa(lp878
I476765
aF3.911532385466035
aa(lp879
I477387
aF2.461400359066427
aa(lp880
I478176
aF3.49025641025641
aa(lp881
I478815
aF3.4146341463414633
aa(lp882
I478932
aF3.612040133779264
aa(lp883
I479924
aF4.529986052998606
aa(lp884
I480033
aF3.191637630662021
aa(lp885
I480115
aF3.74645390070922
aa(lp886
I480305
aF2.9604105571847508
aa(lp887
I481049
aF3.0850746268656715
aa(lp888
I481523
aF3.474015748031496
aa(lp889
I483851
aF3.0078023407022108
aa(lp890
I483981
aF3.257362355953905
aa(lp891
I484675
aF2.533434650455927
aa(lp892
I485334
aF2.950596252129472
aa(lp893
I485601
aF3.681407035175879
aa(lp894
I486152
aF3.3589285714285713
aa(lp895
I486798
aF4.010975609756097
aa(lp896
I487866
aF3.3094890510948907
aa(lp897
I487949
aF3.5768645357686455
aa(lp898
I488551
aF3.6417197452229297
aa(lp899
I489454
aF3.395869191049914
aa(lp900
I490057
aF2.627254509018036
aa(lp901
I491331
aF2.7481323372465316
aa(lp902
I491513
aF3.715686274509804
aa(lp903
I491531
aF2.915443745632425
aa(lp904
I492058
aF3.214814814814815
aa(lp905
I492291
aF3.0165289256198347
aa(lp906
I492478
aF3.707948243992606
aa(lp907
I492714
aF3.0118110236220472
aa(lp908
I493009
aF3.560064935064935
aa(lp909
I493587
aF3.377079482439926
aa(lp910
I494440
aF4.774052478134111
aa(lp911
I495271
aF3.451197053406998
aa(lp912
I496436
aF2.3606770833333335
aa(lp913
I496631
aF3.7192660550458716
aa(lp914
I496887
aF3.6546644844517187
aa(lp915
I497196
aF2.4472573839662446
aa(lp916
I498716
aF4.473770491803279
aa(lp917
I499257
aF2.7482014388489207
aa(lp918
I499293
aF3.373665480427046
aa(lp919
I499718
aF3.3764367816091956
aa(lp920
I500249
aF3.219047619047619
aa(lp921
I501420
aF3.384735202492212
aa(lp922
I501428
aF3.25
aa(lp923
I501823
aF4.858793324775353
aa(lp924
I502274
aF2.9089285714285715
aa(lp925
I502758
aF3.4390243902439024
aa(lp926
I503235
aF3.0734557595993324
aa(lp927
I504051
aF3.139575971731449
aa(lp928
I504211
aF3.36046511627907
aa(lp929
I504401
aF3.677466863033873
aa(lp930
I504440
aF2.9906803355079217
aa(lp931
I504503
aF3.268760907504363
aa(lp932
I504620
aF2.353982300884956
aa(lp933
I504624
aF3.3946428571428573
aa(lp934
I504981
aF3.393258426966292
aa(lp935
I505109
aF3.016460905349794
aa(lp936
I505375
aF3.052276559865093
aa(lp937
I505713
aF3.4037735849056605
aa(lp938
I505967
aF3.475
aa(lp939
I506161
aF2.9867986798679866
aa(lp940
I507094
aF3.541726618705036
aa(lp941
I507498
aF3.4227886056971513
aa(lp942
I507519
aF3.811387900355872
aa(lp943
I507603
aF1.249517188103515
aa(lp944
I507873
aF2.3860759493670884
aa(lp945
I507921
aF3.0814639905548997
aa(lp946
I508323
aF4.17956204379562
aa(lp947
I508584
aF2.9305084745762713
aa(lp948
I508927
aF3.647632311977716
aa(lp949
I509213
aF3.681184668989547
aa(lp950
I509496
aF3.65358361774744
aa(lp951
I510103
aF3.145631067961165
aa(lp952
I510438
aF3.748299319727891
aa(lp953
I510834
aF3.722411831626849
aa(lp954
I511428
aF3.694267515923567
aa(lp955
I511847
aF2.7527216174183513
aa(lp956
I511883
aF3.1455696202531644
aa(lp957
I511899
aF3.454437869822485
aa(lp958
I512278
aF3.713235294117647
aa(lp959
I512303
aF3.70708446866485
aa(lp960
I513501
aF4.0700280112044815
aa(lp961
I513933
aF3.303174603174603
aa(lp962
I514829
aF3.891549295774648
aa(lp963
I515436
aF1.6599362380446334
aa(lp964
I515441
aF3.470383275261324
aa(lp965
I516110
aF4.248511904761905
aa(lp966
I516192
aF4.107563025210084
aa(lp967
I516343
aF4.005172413793104
aa(lp968
I516736
aF3.15625
aa(lp969
I517441
aF3.295589988081049
aa(lp970
I518137
aF3.6965408805031448
aa(lp971
I518309
aF3.282527881040892
aa(lp972
I519699
aF4.3800675675675675
aa(lp973
I519761
aF3.3187613843351547
aa(lp974
I519965
aF2.972972972972973
aa(lp975
I520286
aF3.1390728476821192
aa(lp976
I520374
aF4.293193717277487
aa(lp977
I520507
aF2.640156453715776
aa(lp978
I520704
aF4.011703511053316
aa(lp979
I521153
aF3.214765100671141
aa(lp980
I521315
aF3.420689655172414
aa(lp981
I522180
aF3.091666666666667
aa(lp982
I522710
aF2.992063492063492
aa(lp983
I524142
aF3.03781512605042
aa(lp984
I524295
aF3.830970556161396
aa(lp985
I524390
aF3.3803339517625233
aa(lp986
I524619
aF3.66721044045677
aa(lp987
I524672
aF3.323943661971831
aa(lp988
I525071
aF2.5172043010752687
aa(lp989
I525356
aF2.290272774060731
aa(lp990
I525666
aF3.0838509316770186
aa(lp991
I525945
aF3.0032102728731944
aa(lp992
I526361
aF3.801324503311258
aa(lp993
I527953
aF3.4858490566037736
aa(lp994
I529687
aF3.056675062972292
aa(lp995
I530000
aF3.3560371517027865
aa(lp996
I530670
aF3.036723163841808
aa(lp997
I530763
aF4.1497418244406195
aa(lp998
I530789
aF3.8387963460505103
aa(lp999
I531010
aF3.32992700729927
aa(lp1000
I531125
aF2.723684210526316
aa(lp1001
I531630
aF3.612456747404844
aa(lp1002
I532653
aF2.9004524886877827
aa(lp1003
I533352
aF3.848684210526316
aa(lp1004
I533713
aF3.3285714285714287
aa(lp1005
I534237
aF4.559055118110236
aa(lp1006
I534933
aF3.317741935483871
aa(lp1007
I535671
aF3.1003401360544216
aa(lp1008
I536967
aF4.211305518169583
aa(lp1009
I537389
aF3.9797639123102866
aa(lp1010
I537601
aF3.179144385026738
aa(lp1011
I537732
aF3.36744966442953
aa(lp1012
I537912
aF3.121301775147929
aa(lp1013
I538178
aF2.8744650499286735
aa(lp1014
I538214
aF3.0793650793650795
aa(lp1015
I538668
aF3.016830294530154
aa(lp1016
I539743
aF3.1739130434782608
aa(lp1017
I541135
aF3.295774647887324
aa(lp1018
I541295
aF3.1738382099827884
aa(lp1019
I541376
aF3.107255520504732
aa(lp1020
I541557
aF2.944356120826709
aa(lp1021
I541796
aF2.7901701323251418
aa(lp1022
I541870
aF2.939106901217862
aa(lp1023
I542006
aF4.048387096774194
aa(lp1024
I542848
aF3.273413897280967
aa(lp1025
I542907
aF3.580075662042875
aa(lp1026
I543824
aF3.3219424460431655
aa(lp1027
I545026
aF3.3522867737948085
aa(lp1028
I546751
aF4.325757575757576
aa(lp1029
I546802
aF3.5899843505477307
aa(lp1030
I547341
aF3.6959761549925485
aa(lp1031
I548581
aF3.688963210702341
aa(lp1032
I548695
aF3.414762741652021
aa(lp1033
I549094
aF2.5825932504440496
aa(lp1034
I549534
aF3.2370441458733206
aa(lp1035
I550365
aF3.4737793851717904
aa(lp1036
I550777
aF3.5854092526690393
aa(lp1037
I550883
aF2.698956780923994
aa(lp1038
I551208
aF3.1370786516853935
aa(lp1039
I551489
aF3.7381818181818183
aa(lp1040
I552107
aF2.9396984924623117
aa(lp1041
I552356
aF3.8044776119402983
aa(lp1042
I553115
aF3.474666666666667
aa(lp1043
I553202
aF3.0065789473684212
aa(lp1044
I554137
aF2.5954802259887004
aa(lp1045
I554171
aF3.696526508226691
aa(lp1046
I554192
aF2.8028169014084505
aa(lp1047
I554587
aF2.8292367399741267
aa(lp1048
I555509
aF3.0737951807228914
aa(lp1049
I555528
aF2.9766688269604664
aa(lp1050
I557502
aF3.61646234676007
aa(lp1051
I558634
aF3.8511326860841426
aa(lp1052
I558924
aF3.422857142857143
aa(lp1053
I559753
aF3.1260647359454854
aa(lp1054
I560579
aF3.021406727828746
aa(lp1055
I560599
aF3.8448566610455313
aa(lp1056
I561184
aF2.8657142857142857
aa(lp1057
I562156
aF2.8017241379310347
aa(lp1058
I563585
aF3.452991452991453
aa(lp1059
I563705
aF2.9155672823219
aa(lp1060
I564403
aF2.5309734513274336
aa(lp1061
I565075
aF4.337770382695507
aa(lp1062
I565510
aF2.9049479166666665
aa(lp1063
I566016
aF3.8597063621533443
aa(lp1064
I566628
aF2.6732851985559565
aa(lp1065
I567705
aF3.2690302398331594
aa(lp1066
I567875
aF2.8049605411499434
aa(lp1067
I568832
aF3.1232
aa(lp1068
I570428
aF3.3415977961432506
aa(lp1069
I570681
aF3.304909560723514
aa(lp1070
I570909
aF3.4354561101549055
aa(lp1071
I570929
aF3.7846655791190864
aa(lp1072
I571538
aF3.165898617511521
aa(lp1073
I572481
aF1.2803850782190132
aa(lp1074
I574499
aF4.184019370460049
aa(lp1075
I574834
aF3.6822510822510823
aa(lp1076
I575714
aF2.91123701605288
aa(lp1077
I576723
aF3.2784615384615385
aa(lp1078
I576751
aF3.8680781758957656
aa(lp1079
I576990
aF2.030224525043178
aa(lp1080
I577109
aF3.0529986052998606
aa(lp1081
I577616
aF3.7210084033613446
aa(lp1082
I578191
aF3.1236263736263736
aa(lp1083
I578311
aF3.631868131868132
aa(lp1084
I578869
aF3.6208695652173915
aa(lp1085
I579352
aF2.995426829268293
aa(lp1086
I579707
aF3.958955223880597
aa(lp1087
I580231
aF3.00625
aa(lp1088
I581199
aF2.86013986013986
aa(lp1089
I581893
aF4.253032928942807
aa(lp1090
I581952
aF4.308243727598566
aa(lp1091
I581989
aF3.52233676975945
aa(lp1092
I582315
aF3.6759388038942977
aa(lp1093
I582829
aF2.671875
aa(lp1094
I583086
aF3.5612813370473537
aa(lp1095
I584100
aF3.516279069767442
aa(lp1096
I584437
aF3.50187265917603
aa(lp1097
I585968
aF2.7703826955074877
aa(lp1098
I586694
aF3.3914956011730206
aa(lp1099
I586724
aF3.947521865889213
aa(lp1100
I587590
aF4.29368029739777
aa(lp1101
I587610
aF4.1421052631578945
aa(lp1102
I588285
aF1.759526938239159
aa(lp1103
I589571
aF4.064400715563506
aa(lp1104
I589682
aF3.3819702602230484
aa(lp1105
I589847
aF3.879614767255217
aa(lp1106
I590311
aF4.1521739130434785
aa(lp1107
I590607
aF4.105117565698478
aa(lp1108
I591207
aF3.5263975155279503
aa(lp1109
I591288
aF3.5335515548281506
aa(lp1110
I592277
aF2.134466769706337
aa(lp1111
I592445
aF3.284900284900285
aa(lp1112
I593252
aF3.0303514376996805
aa(lp1113
I594196
aF3.83710407239819
aa(lp1114
I595054
aF3.1823529411764704
aa(lp1115
I595778
aF3.090909090909091
aa(lp1116
I595870
aF1.8911564625850341
aa(lp1117
I596255
aF1.631828978622328
aa(lp1118
I596474
aF3.6566929133858266
aa(lp1119
I596550
aF3.362162162162162
aa(lp1120
I596918
aF3.8147058823529414
aa(lp1121
I596995
aF3.0267379679144386
aa(lp1122
I599145
aF2.929984779299848
aa(lp1123
I599529
aF2.7896389324960755
aa(lp1124
I600160
aF2.914285714285714
aa(lp1125
I601317
aF3.451552210724365
aa(lp1126
I602642
aF4.399068322981367
aa(lp1127
I603277
aF2.8190114068441066
aa(lp1128
I603543
aF2.9936305732484074
aa(lp1129
I605082
aF3.4448275862068964
aa(lp1130
I606105
aF3.149012567324955
aa(lp1131
I606144
aF2.7975567190226878
aa(lp1132
I606249
aF2.452135493372607
aa(lp1133
I607188
aF2.788309636650869
aa(lp1134
I608114
aF3.3448275862068964
aa(lp1135
I608234
aF3.755663430420712
aa(lp1136
I608501
aF2.835897435897436
aa(lp1137
I608538
aF3.3432657926102505
aa(lp1138
I609742
aF3.6458036984352775
aa(lp1139
I609908
aF3.183453237410072
aa(lp1140
I610024
aF3.466233766233766
aa(lp1141
I610915
aF3.2073011734028682
aa(lp1142
I611049
aF2.9774436090225564
aa(lp1143
I612111
aF3.1941431670281997
aa(lp1144
I612384
aF3.796694214876033
aa(lp1145
I612641
aF3.47935368043088
aa(lp1146
I612653
aF4.051020408163265
aa(lp1147
I613651
aF2.9640625
aa(lp1148
I614465
aF3.3412162162162162
aa(lp1149
I617390
aF3.5785837651122625
aa(lp1150
I618832
aF3.771260997067449
aa(lp1151
I620010
aF3.1854480922803905
aa(lp1152
I620714
aF3.634670487106017
aa(lp1153
I620741
aF3.725470763131814
aa(lp1154
I621003
aF3.710526315789474
aa(lp1155
I622453
aF3.111310592459605
aa(lp1156
I623709
aF3.208053691275168
aa(lp1157
I624388
aF3.653179190751445
aa(lp1158
I625067
aF4.258751902587519
aa(lp1159
I625957
aF4.237061769616027
aa(lp1160
I627975
aF4.535603715170279
aa(lp1161
I629120
aF3.1681574239713775
aa(lp1162
I629389
aF2.989465153970827
aa(lp1163
I630153
aF3.1682242990654204
aa(lp1164
I631747
aF3.797260273972603
aa(lp1165
I632347
aF3.993127147766323
aa(lp1166
I632448
aF3.4530973451327434
aa(lp1167
I633570
aF2.42816091954023
aa(lp1168
I633722
aF4.404761904761905
aa(lp1169
I633738
aF3.193700787401575
aa(lp1170
I634388
aF3.6754716981132076
aa(lp1171
I634569
aF3.592400690846287
aa(lp1172
I635056
aF3.1542923433874708
aa(lp1173
I636262
aF2.5065645514223194
aa(lp1174
I636273
aF2.9347826086956523
aa(lp1175
I637266
aF3.3844367015098724
aa(lp1176
I637475
aF3.9420035149384884
aa(lp1177
I638020
aF2.5617647058823527
aa(lp1178
I638998
aF3.14662273476112
aa(lp1179
I639089
aF3.204216073781291
aa(lp1180
I639194
aF3.6493506493506493
aa(lp1181
I639257
aF2.869158878504673
aa(lp1182
I639533
aF2.9430555555555555
aa(lp1183
I640464
aF3.001552795031056
aa(lp1184
I641719
aF2.9136
aa(lp1185
I642036
aF3.581699346405229
aa(lp1186
I642089
aF2.7103658536585367
aa(lp1187
I642384
aF4.994057724957555
aa(lp1188
I642551
aF3.1358024691358026
aa(lp1189
I644453
aF3.422893481717011
aa(lp1190
I645373
aF3.2171344165435745
aa(lp1191
I646323
aF3.38002773925104
aa(lp1192
I646765
aF2.979816513761468
aa(lp1193
I647111
aF3.023006134969325
aa(lp1194
I647691
aF4.491480996068152
aa(lp1195
I647979
aF3.273316062176166
aa(lp1196
I649017
aF3.8351063829787235
aa(lp1197
I649969
aF3.909596662030598
aa(lp1198
I650227
aF3.519434628975265
aa(lp1199
I650771
aF3.265185185185185
aa(lp1200
I651142
aF3.4837545126353793
aa(lp1201
I651230
aF2.008490566037736
aa(lp1202
I651541
aF3.0021141649048624
aa(lp1203
I651625
aF3.3365650969529086
aa(lp1204
I652121
aF2.831187410586552
aa(lp1205
I652324
aF3.0759493670886076
aa(lp1206
I652618
aF3.477906976744186
aa(lp1207
I652972
aF3.8186528497409324
aa(lp1208
I653059
aF3.1913477537437602
aa(lp1209
I653361
aF3.2824675324675323
aa(lp1210
I653515
aF3.8341463414634145
aa(lp1211
I653906
aF2.839527027027027
aa(lp1212
I654022
aF4.0528
aa(lp1213
I654401
aF4.574441687344913
aa(lp1214
I654591
aF3.1421254801536493
aa(lp1215
I655385
aF3.7547169811320753
aa(lp1216
I655601
aF3.802209944751381
aa(lp1217
I656977
aF3.848013816925734
aa(lp1218
I657606
aF2.865414710485133
aa(lp1219
I658645
aF3.454113924050633
aa(lp1220
I659029
aF3.1052631578947367
aa(lp1221
I659285
aF3.2891737891737893
aa(lp1222
I659526
aF3.4295154185022025
aa(lp1223
I662124
aF3.836461126005362
aa(lp1224
I662412
aF3.4380305602716468
aa(lp1225
I662832
aF3.2640545144804087
aa(lp1226
I663118
aF2.6481481481481484
aa(lp1227
I663627
aF3.0360610263522885
aa(lp1228
I663654
aF3.412087912087912
aa(lp1229
I663880
aF3.101449275362319
aa(lp1230
I664230
aF2.9748344370860926
aa(lp1231
I664809
aF3.2084095063985374
aa(lp1232
I665996
aF3.4837662337662336
aa(lp1233
I666500
aF3.2329931972789114
aa(lp1234
I666611
aF4.024745269286754
aa(lp1235
I668855
aF3.53781512605042
aa(lp1236
I669340
aF3.8583473861720066
aa(lp1237
I669635
aF3.0364963503649633
aa(lp1238
I669659
aF3.35195530726257
aa(lp1239
I670382
aF4.107052896725441
aa(lp1240
I670416
aF2.9369894982497082
aa(lp1241
I670488
aF4.562558795860771
aa(lp1242
I671338
aF3.4568345323741005
aa(lp1243
I672097
aF3.8519593613933236
aa(lp1244
I672919
aF3.2674199623352167
aa(lp1245
I673040
aF3.3005671077504726
aa(lp1246
I673187
aF4.016326530612245
aa(lp1247
I674065
aF3.4390243902439024
aa(lp1248
I674927
aF2.8140200286123034
aa(lp1249
I674963
aF3.2084507042253523
aa(lp1250
I675111
aF2.5478806907378337
aa(lp1251
I675283
aF4.067282321899736
aa(lp1252
I675390
aF3.8233082706766917
aa(lp1253
I675407
aF3.0846560846560847
aa(lp1254
I675468
aF3.2696296296296294
aa(lp1255
I679042
aF3.6221889055472265
aa(lp1256
I679429
aF4.537942664418212
aa(lp1257
I679869
aF3.5745937961595273
aa(lp1258
I679947
aF3.5408496732026142
aa(lp1259
I682093
aF3.489795918367347
aa(lp1260
I682560
aF3.5484460694698354
aa(lp1261
I682688
aF3.2986577181208054
aa(lp1262
I682739
aF3.0987124463519313
aa(lp1263
I682963
aF3.2582089552238807
aa(lp1264
I682970
aF3.0816023738872405
aa(lp1265
I683254
aF3.314252336448598
aa(lp1266
I683427
aF3.521613832853026
aa(lp1267
I684108
aF3.339253996447602
aa(lp1268
I684220
aF3.6742671009771986
aa(lp1269
I684531
aF3.170891251022077
aa(lp1270
I684587
aF3.513103448275862
aa(lp1271
I684648
aF3.537202380952381
aa(lp1272
I684876
aF3.3669172932330826
aa(lp1273
I685565
aF4.707692307692308
aa(lp1274
I685687
aF3.4517426273458445
aa(lp1275
I686204
aF2.639225181598063
aa(lp1276
I686362
aF4.125448028673835
aa(lp1277
I686510
aF3.5889212827988337
aa(lp1278
I687379
aF3.2747967479674798
aa(lp1279
I687769
aF3.5793201133144477
aa(lp1280
I688057
aF3.3379073756432245
aa(lp1281
I688217
aF3.213644524236984
aa(lp1282
I688455
aF3.292063492063492
aa(lp1283
I689488
aF2.7947805456702253
aa(lp1284
I690313
aF4.149305555555555
aa(lp1285
I690426
aF3.7830985915492956
aa(lp1286
I690754
aF3.3804713804713806
aa(lp1287
I691808
aF3.2545909849749584
aa(lp1288
I691878
aF3.42797783933518
aa(lp1289
I692048
aF2.858034321372855
aa(lp1290
I692235
aF3.5454545454545454
aa(lp1291
I693720
aF3.359932088285229
aa(lp1292
I693771
aF2.8876404494382024
aa(lp1293
I694070
aF3.439944134078212
aa(lp1294
I694620
aF3.4746059544658494
aa(lp1295
I695091
aF4.081377151799687
aa(lp1296
I697054
aF3.556998556998557
aa(lp1297
I700490
aF3.3352208380520953
aa(lp1298
I701443
aF3.1004056795131847
aa(lp1299
I701615
aF3.329450915141431
aa(lp1300
I701962
aF3.039149888143177
aa(lp1301
I702403
aF4.041800643086817
aa(lp1302
I703585
aF3.681241184767278
aa(lp1303
I704058
aF3.1580756013745703
aa(lp1304
I704117
aF3.6089385474860336
aa(lp1305
I705603
aF4.1745762711864405
aa(lp1306
I705645
aF3.1360759493670884
aa(lp1307
I705714
aF3.1684587813620073
aa(lp1308
I706198
aF3.325663716814159
aa(lp1309
I706264
aF3.3098039215686272
aa(lp1310
I706832
aF3.3340040241448694
aa(lp1311
I706897
aF3.085
aa(lp1312
I707496
aF3.2714681440443214
aa(lp1313
I707528
aF1.7571606475716064
aa(lp1314
I708047
aF3.816446402349486
aa(lp1315
I708226
aF3.2848200312989047
aa(lp1316
I709542
aF3.0413080895008604
aa(lp1317
I709755
aF3.007727975270479
aa(lp1318
I709905
aF3.205223880597015
aa(lp1319
I711263
aF2.923599320882852
aa(lp1320
I711569
aF3.224755700325733
aa(lp1321
I712609
aF3.0437956204379564
aa(lp1322
I712653
aF2.9384885764499122
aa(lp1323
I712664
aF3.593655589123867
aa(lp1324
I714349
aF3.2485955056179776
aa(lp1325
I714802
aF4.3545454545454545
aa(lp1326
I715339
aF3.14336917562724
aa(lp1327
I715542
aF3.7643908969210176
aa(lp1328
I716091
aF3.4105392156862746
aa(lp1329
I716173
aF4.350988437150317
aa(lp1330
I716649
aF4.249090909090909
aa(lp1331
I716761
aF3.5863309352517985
aa(lp1332
I716874
aF3.9862280030604436
aa(lp1333
I717338
aF3.9615384615384617
aa(lp1334
I717542
aF3.1724806201550386
aa(lp1335
I717972
aF2.8088235294117645
aa(lp1336
I719294
aF3.1881331403762663
aa(lp1337
I719725
aF3.700763358778626
aa(lp1338
I719755
aF3.92375
aa(lp1339
I720436
aF4.194642857142857
aa(lp1340
I720503
aF3.243001119820829
aa(lp1341
I721590
aF3.2285223367697595
aa(lp1342
I722298
aF2.9872262773722627
aa(lp1343
I722591
aF4.487146529562982
aa(lp1344
I723448
aF3.6421621621621623
aa(lp1345
I724224
aF3.561467889908257
aa(lp1346
I726339
aF2.7210884353741496
aa(lp1347
I726543
aF3.655217965653897
aa(lp1348
I726823
aF3.445438282647585
aa(lp1349
I727242
aF1.1913805697589481
aa(lp1350
I728123
aF4.013698630136986
aa(lp1351
I728171
aF3.3707052441229655
aa(lp1352
I729150
aF3.6197368421052634
aa(lp1353
I729393
aF3.342696629213483
aa(lp1354
I730016
aF2.881977671451356
aa(lp1355
I731217
aF3.036334913112164
aa(lp1356
I731592
aF3.6726519337016574
aa(lp1357
I731685
aF2.82798833819242
aa(lp1358
I731988
aF3.409731113956466
aa(lp1359
I732363
aF3.154281098546042
aa(lp1360
I732590
aF3.53584229390681
aa(lp1361
I732682
aF3.8139963167587476
aa(lp1362
I732775
aF2.5266187050359714
aa(lp1363
I733746
aF3.4136029411764706
aa(lp1364
I733887
aF2.797080291970803
aa(lp1365
I734347
aF3.0880597014925373
aa(lp1366
I735078
aF3.1693121693121693
aa(lp1367
I735560
aF4.548333333333333
aa(lp1368
I735636
aF4.201923076923077
aa(lp1369
I736013
aF3.2815356489945153
aa(lp1370
I736927
aF3.3765690376569037
aa(lp1371
I740929
aF3.5557083906464926
aa(lp1372
I741248
aF3.8058124174372523
aa(lp1373
I743598
aF2.284263959390863
aa(lp1374
I743633
aF4.369098712446352
aa(lp1375
I744875
aF3.1738505747126435
aa(lp1376
I745235
aF2.6879084967320264
aa(lp1377
I748028
aF2.4194977843426884
aa(lp1378
I748141
aF3.4467120181405897
aa(lp1379
I750641
aF3.8430717863105177
aa(lp1380
I750677
aF3.271505376344086
aa(lp1381
I751829
aF4.66553480475382
aa(lp1382
I752094
aF3.185694635488308
aa(lp1383
I752619
aF2.839403973509934
aa(lp1384
I752642
aF2.136113025499655
aa(lp1385
I752853
aF3.659903381642512
aa(lp1386
I752867
aF3.2938144329896906
aa(lp1387
I753107
aF3.654460093896714
aa(lp1388
I753195
aF3.4094076655052263
aa(lp1389
I753231
aF3.3360572012257403
aa(lp1390
I753480
aF3.911003236245955
aa(lp1391
I753596
aF2.7956521739130435
aa(lp1392
I753663
aF3.838951310861423
aa(lp1393
I754161
aF3.790521327014218
aa(lp1394
I754884
aF3.5942760942760943
aa(lp1395
I755163
aF2.8303886925795054
aa(lp1396
I756162
aF4.037766830870279
aa(lp1397
I757456
aF2.486178861788618
aa(lp1398
I758383
aF3.356842105263158
aa(lp1399
I758850
aF3.012531328320802
aa(lp1400
I759289
aF2.8976234003656307
aa(lp1401
I759737
aF2.449197860962567
aa(lp1402
I760072
aF4.213245033112583
aa(lp1403
I760211
aF2.8977591036414565
aa(lp1404
I760481
aF2.718371837183718
aa(lp1405
I760837
aF3.609625668449198
aa(lp1406
I760924
aF3.528787878787879
aa(lp1407
I760943
aF2.574074074074074
aa(lp1408
I761379
aF2.996275605214153
aa(lp1409
I761476
aF2.705972434915773
aa(lp1410
I761998
aF3.996
aa(lp1411
I762835
aF3.610738255033557
aa(lp1412
I763193
aF3.432
aa(lp1413
I763240
aF3.5220228384991845
aa(lp1414
I763551
aF3.457627118644068
aa(lp1415
I764583
aF3.172859450726979
aa(lp1416
I764785
aF3.1822916666666665
aa(lp1417
I766064
aF4.139356814701379
aa(lp1418
I766982
aF4.1916932907348246
aa(lp1419
I767816
aF3.1669242658423493
aa(lp1420
I767958
aF3.1209302325581394
aa(lp1421
I768176
aF3.6397188049209137
aa(lp1422
I768749
aF3.330522765598651
aa(lp1423
I768876
aF3.5727091633466137
aa(lp1424
I769162
aF3.0571870170015454
aa(lp1425
I769235
aF3.6734006734006734
aa(lp1426
I769702
aF2.6549479166666665
aa(lp1427
I770133
aF3.176470588235294
aa(lp1428
I770268
aF3.069324090121317
aa(lp1429
I770339
aF2.9550359712230216
aa(lp1430
I772825
aF3.2392426850258174
aa(lp1431
I773251
aF3.786324786324786
aa(lp1432
I774088
aF3.48297213622291
aa(lp1433
I774398
aF3.343003412969283
aa(lp1434
I774602
aF3.9717083786724703
aa(lp1435
I775020
aF3.882575757575758
aa(lp1436
I775171
aF3.118361153262519
aa(lp1437
I776187
aF3.5591216216216215
aa(lp1438
I776905
aF4.107084019769357
aa(lp1439
I778615
aF3.011574074074074
aa(lp1440
I779144
aF2.9114139693356047
aa(lp1441
I779492
aF3.0336391437308867
aa(lp1442
I779635
aF3.3641114982578397
aa(lp1443
I779760
aF3.422033898305085
aa(lp1444
I779811
aF3.559286463798531
aa(lp1445
I780253
aF3.063176895306859
aa(lp1446
I780334
aF4.178104575163399
aa(lp1447
I780768
aF3.9280089988751405
aa(lp1448
I781021
aF3.3751937984496125
aa(lp1449
I781131
aF3.2516447368421053
aa(lp1450
I781610
aF4.071611253196931
aa(lp1451
I782611
aF3.0514970059880238
aa(lp1452
I783585
aF2.7482014388489207
aa(lp1453
I784305
aF2.9752851711026618
aa(lp1454
I785931
aF3.23613595706619
aa(lp1455
I785992
aF3.400593471810089
aa(lp1456
I786312
aF2.8131041890440387
aa(lp1457
I786415
aF4.27787610619469
aa(lp1458
I787052
aF4.028985507246377
aa(lp1459
I789014
aF2.033463469046291
aa(lp1460
I789548
aF3.779174147217235
aa(lp1461
I789894
aF3.0193370165745854
aa(lp1462
I789969
aF3.2735457063711912
aa(lp1463
I790183
aF3.45438282647585
aa(lp1464
I790348
aF3.8144654088050314
aa(lp1465
I790459
aF3.3876712328767122
aa(lp1466
I790471
aF3.3852889667250436
aa(lp1467
I793113
aF3.9412698412698415
aa(lp1468
I793754
aF3.210071942446043
aa(lp1469
I793892
aF3.265527950310559
aa(lp1470
I794215
aF2.900466562986003
aa(lp1471
I794765
aF3.7204301075268815
aa(lp1472
I794999
aF4.997527200791295
aa(lp1473
I795380
aF3.0689102564102564
aa(lp1474
I795473
aF3.07035175879397
aa(lp1475
I795665
aF3.358843537414966
aa(lp1476
I798262
aF3.173789173789174
aa(lp1477
I798296
aF1.900375939849624
aa(lp1478
I798524
aF3.468497576736672
aa(lp1479
I799442
aF3.279513888888889
aa(lp1480
I799542
aF3.6622296173044924
aa(lp1481
I800136
aF2.6715817694369974
aa(lp1482
I803137
aF3.5905848787446506
aa(lp1483
I803330
aF3.48943661971831
aa(lp1484
I803605
aF3.3656821378340367
aa(lp1485
I804027
aF3.8585131894484412
aa(lp1486
I804602
aF3.4489544895448954
aa(lp1487
I805207
aF3.915447154471545
aa(lp1488
I806188
aF3.5938566552901023
aa(lp1489
I806605
aF2.824607329842932
aa(lp1490
I807890
aF3.7082785808147176
aa(lp1491
I808435
aF2.4529780564263324
aa(lp1492
I808604
aF3.1701492537313434
aa(lp1493
I810392
aF3.357271095152603
aa(lp1494
I811104
aF3.3661290322580646
aa(lp1495
I811530
aF3.368680641183724
aa(lp1496
I812796
aF2.947278911564626
aa(lp1497
I813424
aF3.7591623036649215
aa(lp1498
I813594
aF3.195266272189349
aa(lp1499
I814408
aF3.1890459363957597
aa(lp1500
I814740
aF3.3003472222222223
aa(lp1501
I816435
aF3.127906976744186
aa(lp1502
I816504
aF3.7262479871175525
aa(lp1503
I816549
aF3.2333333333333334
aa(lp1504
I817339
aF3.4460043196544277
aa(lp1505
I817464
aF3.1263736263736264
aa(lp1506
I817916
aF3.0825035561877665
aa(lp1507
I818025
aF4.200564971751413
aa(lp1508
I818416
aF3.065081351689612
aa(lp1509
I818736
aF2.9576868829337095
aa(lp1510
I818752
aF3.127927927927928
aa(lp1511
I818816
aF4.058309037900875
aa(lp1512
I819314
aF3.858447488584475
aa(lp1513
I819822
aF2.7589424572317265
aa(lp1514
I823101
aF3.4027355623100304
aa(lp1515
I823628
aF3.7474358974358974
aa(lp1516
I823802
aF3.455512572533849
aa(lp1517
I825002
aF4.576045627376426
aa(lp1518
I825353
aF3.4865067466266866
aa(lp1519
I825779
aF3.967948717948718
aa(lp1520
I825819
aF3.3822260569456426
aa(lp1521
I825831
aF3.6527415143603132
aa(lp1522
I826184
aF2.5870044052863435
aa(lp1523
I826270
aF3.230167597765363
aa(lp1524
I826444
aF3.6882716049382718
aa(lp1525
I826696
aF3.356793743890518
aa(lp1526
I827240
aF3.138387484957882
aa(lp1527
I827380
aF3.2196969696969697
aa(lp1528
I827459
aF3.2666666666666666
aa(lp1529
I827526
aF4.15934065934066
aa(lp1530
I828045
aF4.160409556313994
aa(lp1531
I828344
aF2.983173076923077
aa(lp1532
I828349
aF3.226554267650158
aa(lp1533
I828444
aF3.0870488322717624
aa(lp1534
I828654
aF3.669421487603306
aa(lp1535
I829075
aF3.298093587521664
aa(lp1536
I829101
aF3.608991825613079
aa(lp1537
I829466
aF4.34947049924357
aa(lp1538
I829575
aF3.1470160116448325
aa(lp1539
I829708
aF3.978723404255319
aa(lp1540
I830370
aF3.367365542388332
aa(lp1541
I830855
aF3.4182926829268294
aa(lp1542
I831103
aF3.8948837209302325
aa(lp1543
I831151
aF3.5033444816053514
aa(lp1544
I831494
aF2.9524564183835182
aa(lp1545
I831920
aF3.837516512549538
aa(lp1546
I832536
aF3.64274322169059
aa(lp1547
I832780
aF3.619047619047619
aa(lp1548
I832959
aF2.540880503144654
aa(lp1549
I833951
aF3.4769001490312967
aa(lp1550
I834131
aF3.3054545454545456
aa(lp1551
I835265
aF3.178602243313201
aa(lp1552
I835271
aF3.4519104084321475
aa(lp1553
I835353
aF3.896938775510204
aa(lp1554
I835847
aF3.2843822843822843
aa(lp1555
I836050
aF3.429951690821256
aa(lp1556
I836150
aF2.9983525535420097
aa(lp1557
I837133
aF3.378448275862069
aa(lp1558
I837258
aF3.219600725952813
aa(lp1559
I838130
aF3.7320574162679425
aa(lp1560
I838612
aF4.268802228412256
aa(lp1561
I838773
aF2.934609250398724
aa(lp1562
I838868
aF3.3344481605351173
aa(lp1563
I840419
aF3.7284345047923324
aa(lp1564
I840737
aF3.488454706927176
aa(lp1565
I840763
aF3.136762860727729
aa(lp1566
I841432
aF3.586687306501548
aa(lp1567
I841955
aF3.722027972027972
aa(lp1568
I843387
aF3.891891891891892
aa(lp1569
I844028
aF4.621581670362158
aa(lp1570
I844049
aF3.440677966101695
aa(lp1571
I844207
aF3.5888689407540393
aa(lp1572
I844459
aF3.7532637075718016
aa(lp1573
I844526
aF4.957371225577265
aa(lp1574
I845921
aF3.954379562043796
aa(lp1575
I845991
aF3.168627450980392
aa(lp1576
I847313
aF2.871310507674144
aa(lp1577
I848193
aF4.441860465116279
aa(lp1578
I848872
aF3.5
aa(lp1579
I850678
aF3.4148471615720526
aa(lp1580
I851111
aF3.842923794712286
aa(lp1581
I851463
aF3.372852233676976
aa(lp1582
I851702
aF3.9084745762711863
aa(lp1583
I851848
aF2.8536121673003803
aa(lp1584
I852193
aF3.15
aa(lp1585
I853135
aF2.941678520625889
aa(lp1586
I853491
aF3.4470734744707348
aa(lp1587
I853893
aF2.8145580589254764
aa(lp1588
I853918
aF3.5636998254799304
aa(lp1589
I856563
aF3.5138121546961325
aa(lp1590
I857132
aF2.9083191850594226
aa(lp1591
I857778
aF3.5845481049562684
aa(lp1592
I858298
aF3.3824503311258276
aa(lp1593
I858814
aF3.1373844121532364
aa(lp1594
I859380
aF3.1385991058122205
aa(lp1595
I859453
aF3.2371794871794872
aa(lp1596
I859826
aF3.3630573248407645
aa(lp1597
I860520
aF3.6717998075072185
aa(lp1598
I861911
aF3.252991452991453
aa(lp1599
I862040
aF2.665909090909091
aa(lp1600
I862596
aF2.5804066543438076
aa(lp1601
I862644
aF3.3569277108433737
aa(lp1602
I862850
aF3.232727272727273
aa(lp1603
I863227
aF3.6471449487554906
aa(lp1604
I863285
aF3.8882138517618468
aa(lp1605
I864172
aF3.1046057767369244
aa(lp1606
I864618
aF3.2449856733524354
aa(lp1607
I864647
aF4.392333709131905
aa(lp1608
I867275
aF3.766839378238342
aa(lp1609
I867311
aF4.480898876404495
aa(lp1610
I867800
aF4.129496402877698
aa(lp1611
I868723
aF3.3678618857901728
aa(lp1612
I868881
aF3.8127090301003346
aa(lp1613
I868990
aF3.607843137254902
aa(lp1614
I869426
aF3.088607594936709
aa(lp1615
I871675
aF3.4578866768759573
aa(lp1616
I871687
aF3.0704225352112675
aa(lp1617
I872215
aF1.9649737302977233
aa(lp1618
I872408
aF2.8680042238648364
aa(lp1619
I872591
aF2.903409090909091
aa(lp1620
I872882
aF3.6269035532994924
aa(lp1621
I872924
aF3.5328467153284673
aa(lp1622
I873478
aF2.7708674304418985
aa(lp1623
I873556
aF3.122541603630862
aa(lp1624
I873713
aF2.785449146250928
aa(lp1625
I874505
aF4.246774193548387
aa(lp1626
I874550
aF3.1945525291828796
aa(lp1627
I874732
aF4.37037037037037
aa(lp1628
I875723
aF3.1469265367316344
aa(lp1629
I875926
aF3.364746945898778
aa(lp1630
I876370
aF3.1705426356589146
aa(lp1631
I876510
aF3.6360544217687076
aa(lp1632
I876661
aF3.6307922272047835
aa(lp1633
I877320
aF3.860074626865672
aa(lp1634
I877394
aF2.9092682926829267
aa(lp1635
I878889
aF4.79110251450677
aa(lp1636
I879028
aF4.556259904912837
aa(lp1637
I879760
aF3.688427299703264
aa(lp1638
I879912
aF3.0045454545454544
aa(lp1639
I881355
aF3.3544776119402986
aa(lp1640
I882322
aF3.0720720720720722
aa(lp1641
I883478
aF3.3028616852146264
aa(lp1642
I884078
aF3.111111111111111
aa(lp1643
I884944
aF2.9961089494163424
aa(lp1644
I885386
aF3.60752688172043
aa(lp1645
I888450
aF2.652173913043478
aa(lp1646
I888617
aF4.449139280125196
aa(lp1647
I889674
aF3.369281045751634
aa(lp1648
I890573
aF3.25
aa(lp1649
I890669
aF3.258503401360544
aa(lp1650
I891923
aF3.7450271247739604
aa(lp1651
I892254
aF3.638065522620905
aa(lp1652
I892694
aF3.9157641395908542
aa(lp1653
I893014
aF3.2765388046387156
aa(lp1654
I894205
aF3.612980769230769
aa(lp1655
I894232
aF3.509025270758123
aa(lp1656
I895443
aF3.17984496124031
aa(lp1657
I895641
aF3.643185298621746
aa(lp1658
I895935
aF3.4434931506849313
aa(lp1659
I896114
aF3.435233160621762
aa(lp1660
I896279
aF3.1331058020477816
aa(lp1661
I896309
aF3.3920367534456357
aa(lp1662
I896927
aF3.8858075040783033
aa(lp1663
I897732
aF3.4259541984732826
aa(lp1664
I898713
aF3.6207513416815744
aa(lp1665
I899799
aF3.232638888888889
aa(lp1666
I900096
aF4.060846560846561
aa(lp1667
I900455
aF3.4859287054409007
aa(lp1668
I901167
aF2.948905109489051
aa(lp1669
I901269
aF2.909090909090909
aa(lp1670
I901520
aF3.2479406919275124
aa(lp1671
I901684
aF3.259259259259259
aa(lp1672
I902413
aF3.6288492706645057
aa(lp1673
I903296
aF4.1206030150753765
aa(lp1674
I903666
aF3.445137157107232
aa(lp1675
I904391
aF3.201430274135876
aa(lp1676
I904898
aF3.442724458204334
aa(lp1677
I905074
aF2.968386023294509
aa(lp1678
I906574
aF4.330188679245283
aa(lp1679
I908205
aF3.3218654434250765
aa(lp1680
I908626
aF4.602545968882603
aa(lp1681
I909432
aF2.9816666666666665
aa(lp1682
I910059
aF3.313075506445672
aa(lp1683
I910244
aF3.560260586319218
aa(lp1684
I910339
aF3.657103825136612
aa(lp1685
I911828
aF3.151291512915129
aa(lp1686
I912093
aF3.197142857142857
aa(lp1687
I912340
aF3.812191103789127
aa(lp1688
I912999
aF2.5167910447761193
aa(lp1689
I913814
aF4.019230769230769
aa(lp1690
I914508
aF2.769968051118211
aa(lp1691
I914728
aF3.1968085106382977
aa(lp1692
I915926
aF2.8153846153846156
aa(lp1693
I916101
aF3.046744574290484
aa(lp1694
I917008
aF3.5915966386554623
aa(lp1695
I917571
aF3.5450310559006213
aa(lp1696
I917857
aF3.03801652892562
aa(lp1697
I918897
aF3.9714285714285715
aa(lp1698
I919160
aF2.9487951807228914
aa(lp1699
I919486
aF3.987783595113438
aa(lp1700
I920065
aF3.2128378378378377
aa(lp1701
I920088
aF3.063013698630137
aa(lp1702
I920168
aF3.359154929577465
aa(lp1703
I920724
aF3.6405451448040886
aa(lp1704
I920932
aF2.8899188876013904
aa(lp1705
I921585
aF3.0101651842439643
aa(lp1706
I921587
aF3.30188679245283
aa(lp1707
I921783
aF3.091492776886035
aa(lp1708
I922332
aF3.278481012658228
aa(lp1709
I922551
aF2.9035433070866143
aa(lp1710
I922812
aF4.108768035516094
aa(lp1711
I922922
aF3.5787139689578713
aa(lp1712
I923084
aF3.115916955017301
aa(lp1713
I923103
aF3.177293934681182
aa(lp1714
I923325
aF3.6313432835820896
aa(lp1715
I923517
aF4.6375690607734805
aa(lp1716
I923631
aF3.1229718189581552
aa(lp1717
I923703
aF3.090267983074753
aa(lp1718
I923889
aF2.9252217997465144
aa(lp1719
I924765
aF3.9594594594594597
aa(lp1720
I924960
aF3.8790960451977403
aa(lp1721
I926054
aF3.5415959252971136
aa(lp1722
I926900
aF2.9597122302158274
aa(lp1723
I927240
aF3.477657935285054
aa(lp1724
I927849
aF3.835689045936396
aa(lp1725
I929308
aF3.1779788838612366
aa(lp1726
I929407
aF3.473788328387735
aa(lp1727
I930113
aF3.503681885125184
aa(lp1728
I931005
aF3.5707070707070705
aa(lp1729
I931232
aF2.6391076115485563
aa(lp1730
I931316
aF3.181964573268921
aa(lp1731
I931384
aF2.789565217391304
aa(lp1732
I931475
aF3.1074380165289255
aa(lp1733
I931565
aF3.294814814814815
aa(lp1734
I933168
aF4.126288659793815
aa(lp1735
I933207
aF4.031065088757397
aa(lp1736
I933819
aF4.3375
aa(lp1737
I933837
aF3.475667189952904
aa(lp1738
I933855
aF3.2468619246861925
aa(lp1739
I934606
aF4.146341463414634
aa(lp1740
I934647
aF3.7281795511221945
aa(lp1741
I934835
aF2.64878892733564
aa(lp1742
I934993
aF2.942857142857143
aa(lp1743
I935060
aF2.9634782608695653
aa(lp1744
I935459
aF3.5555555555555554
aa(lp1745
I935732
aF3.68208778173191
aa(lp1746
I936093
aF3.8945409429280398
aa(lp1747
I936307
aF3.322429906542056
aa(lp1748
I936396
aF2.713274336283186
aa(lp1749
I936928
aF3.613126079447323
aa(lp1750
I938764
aF3.896640826873385
aa(lp1751
I938931
aF2.697712418300654
aa(lp1752
I939816
aF3.3753424657534246
aa(lp1753
I940016
aF3.580547112462006
aa(lp1754
I940264
aF3.5734024179620034
aa(lp1755
I940516
aF2.793063583815029
aa(lp1756
I940806
aF3.2828096118299444
aa(lp1757
I941279
aF3.173841059602649
aa(lp1758
I941431
aF3.217391304347826
aa(lp1759
I941600
aF3.4353982300884955
aa(lp1760
I941624
aF4.122749590834697
aa(lp1761
I942007
aF3.69
aa(lp1762
I942513
aF4.221666666666667
aa(lp1763
I942523
aF3.987434554973822
aa(lp1764
I942568
aF3.120071684587814
aa(lp1765
I942771
aF2.6802244039270686
aa(lp1766
I943256
aF2.5544554455445545
aa(lp1767
I943436
aF2.991883116883117
aa(lp1768
I944944
aF3.6903553299492384
aa(lp1769
I945258
aF3.1737967914438503
aa(lp1770
I946380
aF2.963582677165354
aa(lp1771
I947104
aF3.1070840197693577
aa(lp1772
I948109
aF3.4153166421207657
aa(lp1773
I948447
aF3.1697792869269947
aa(lp1774
I948457
aF3.4013840830449826
aa(lp1775
I948572
aF2.9971014492753625
aa(lp1776
I948801
aF3.2232277526395174
aa(lp1777
I949240
aF3.2490974729241877
aa(lp1778
I951446
aF3.1011984021304926
aa(lp1779
I951798
aF3.6530278232405893
aa(lp1780
I952063
aF2.759026687598116
aa(lp1781
I952156
aF2.8321554770318023
aa(lp1782
I952381
aF3.5474452554744524
aa(lp1783
I952582
aF3.2389580973952437
aa(lp1784
I953110
aF4.598150051387462
aa(lp1785
I953604
aF2.8019693654266957
aa(lp1786
I953667
aF3.8236994219653178
aa(lp1787
I954111
aF2.6921675774134792
aa(lp1788
I954742
aF3.4363817097415508
aa(lp1789
I954924
aF3.2711267605633805
aa(lp1790
I954973
aF3.2437275985663083
aa(lp1791
I955706
aF4.074954296160877
aa(lp1792
I956229
aF3.09364161849711
aa(lp1793
I956271
aF3.355805243445693
aa(lp1794
I958634
aF3.103076923076923
aa(lp1795
I958687
aF3.55103550295858
aa(lp1796
I958956
aF3.058287795992714
aa(lp1797
I959020
aF3.046594982078853
aa(lp1798
I959443
aF4.599309153713299
aa(lp1799
I960137
aF3.0854700854700856
aa(lp1800
I960983
aF4.006956521739131
aa(lp1801
I961513
aF3.303921568627451
aa(lp1802
I962019
aF2.40777666999003
aa(lp1803
I962098
aF3.178247734138973
aa(lp1804
I962151
aF2.9685314685314683
aa(lp1805
I962164
aF2.8223684210526314
aa(lp1806
I962384
aF2.3922872340425534
aa(lp1807
I962564
aF3.120610687022901
aa(lp1808
I963705
aF3.3266331658291457
aa(lp1809
I963962
aF3.463821892393321
aa(lp1810
I964916
aF3.145705521472393
aa(lp1811
I965104
aF3.073224043715847
aa(lp1812
I965381
aF2.8878205128205128
aa(lp1813
I966426
aF3.4991423670668955
aa(lp1814
I968184
aF2.8205383848454635
aa(lp1815
I969772
aF3.3876651982378854
aa(lp1816
I969879
aF2.432343234323432
aa(lp1817
I970756
aF3.392282958199357
aa(lp1818
I972267
aF3.641571194762684
aa(lp1819
I972616
aF3.188905547226387
aa(lp1820
I972914
aF4.037481259370315
aa(lp1821
I973051
aF4.25886524822695
aa(lp1822
I973313
aF3.104461371055495
aa(lp1823
I973443
aF2.821869488536155
aa(lp1824
I974174
aF3.8876629889669005
aa(lp1825
I974375
aF3.077490774907749
aa(lp1826
I974823
aF3.3810020876826723
aa(lp1827
I975592
aF3.1270236612702367
aa(lp1828
I976385
aF4.443699731903485
aa(lp1829
I977533
aF3.0719895287958114
aa(lp1830
I977703
aF4.097165991902834
aa(lp1831
I977932
aF3.610969387755102
aa(lp1832
I978881
aF3.4748700173310225
aa(lp1833
I979155
aF2.760061919504644
aa(lp1834
I980292
aF3.0164473684210527
aa(lp1835
I981199
aF3.64093567251462
aa(lp1836
I981753
aF3.3909643788010424
aa(lp1837
I982098
aF3.2416
aa(lp1838
I982331
aF2.970636215334421
aa(lp1839
I982661
aF3.3012048192771086
aa(lp1840
I982689
aF3.9163636363636365
aa(lp1841
I982709
aF3.5196374622356497
aa(lp1842
I983042
aF2.9386733416770965
aa(lp1843
I983069
aF3.0707596253902185
aa(lp1844
I983523
aF3.5023923444976077
aa(lp1845
I984085
aF3.048622366288493
aa(lp1846
I986794
aF2.6693227091633465
aa(lp1847
I987078
aF3.509157509157509
aa(lp1848
I990639
aF3.2189655172413794
aa(lp1849
I992021
aF3.561277033985582
aa(lp1850
I992512
aF3.348101265822785
aa(lp1851
I993550
aF2.992711370262391
aa(lp1852
I994370
aF2.856682769726248
aa(lp1853
I994838
aF3.943939393939394
aa(lp1854
I995154
aF2.9436860068259385
aa(lp1855
I995497
aF2.774011299435028
aa(lp1856
I995925
aF3.7757009345794392
aa(lp1857
I996461
aF3.4378194207836454
aa(lp1858
I997772
aF3.2532588454376166
aa(lp1859
I998185
aF3.6546875
aa(lp1860
I998236
aF3.6395131086142323
aa(lp1861
I998502
aF2.866600790513834
aa(lp1862
I1000192
aF3.128205128205128
aa(lp1863
I1000387
aF2.838855421686747
aa(lp1864
I1000779
aF3.059679767103348
aa(lp1865
I1001129
aF2.2619589977220955
aa(lp1866
I1001928
aF3.329103885804917
aa(lp1867
I1002367
aF3.3951734539969833
aa(lp1868
I1002509
aF2.28966639544345
aa(lp1869
I1002688
aF3.3355978260869565
aa(lp1870
I1002780
aF3.7365661861074706
aa(lp1871
I1002943
aF3.775599128540305
aa(lp1872
I1003143
aF3.4863636363636363
aa(lp1873
I1003874
aF3.699236641221374
aa(lp1874
I1006406
aF2.9684065934065935
aa(lp1875
I1007545
aF3.527687296416938
aa(lp1876
I1007577
aF2.996
aa(lp1877
I1008085
aF3.190311418685121
aa(lp1878
I1008517
aF3.410018552875696
aa(lp1879
I1009622
aF2.5165876777251186
aa(lp1880
I1010489
aF3.696969696969697
aa(lp1881
I1010609
aF3.2814685314685317
aa(lp1882
I1013603
aF4.617824773413897
aa(lp1883
I1013856
aF3.9133448873483534
aa(lp1884
I1014412
aF2.8490284005979074
aa(lp1885
I1014889
aF3.6384
aa(lp1886
I1015048
aF3.4340878828229027
aa(lp1887
I1017411
aF3.2674825174825175
aa(lp1888
I1017698
aF3.450657894736842
aa(lp1889
I1018379
aF3.6266349583828776
aa(lp1890
I1018465
aF3.3993231810490694
aa(lp1891
I1018901
aF3.3214285714285716
aa(lp1892
I1020195
aF3.657935285053929
aa(lp1893
I1020745
aF3.599009900990099
aa(lp1894
I1022452
aF3.458994708994709
aa(lp1895
I1023101
aF3.0620805369127515
aa(lp1896
I1023470
aF3.288224956063269
aa(lp1897
I1024066
aF3.628975265017668
aa(lp1898
I1024189
aF3.4705882352941178
aa(lp1899
I1024568
aF3.9220779220779223
aa(lp1900
I1024768
aF4.194352159468439
aa(lp1901
I1025888
aF3.6157142857142857
aa(lp1902
I1026162
aF2.9583333333333335
aa(lp1903
I1026860
aF2.804537521815009
aa(lp1904
I1026926
aF4.028662420382165
aa(lp1905
I1026933
aF3.095320623916811
aa(lp1906
I1028463
aF3.5485436893203883
aa(lp1907
I1029163
aF2.164897381457891
aa(lp1908
I1029833
aF3.3333333333333335
aa(lp1909
I1030857
aF1.5030728709394205
aa(lp1910
I1032165
aF3.5773710482529117
aa(lp1911
I1033433
aF3.5098253275109172
aa(lp1912
I1033629
aF3.522727272727273
aa(lp1913
I1033930
aF3.451794510907811
aa(lp1914
I1034714
aF2.4869240348692405
aa(lp1915
I1034831
aF3.3611416026344676
aa(lp1916
I1035000
aF2.8497913769123784
aa(lp1917
I1035650
aF3.346014492753623
aa(lp1918
I1036350
aF4.153225806451613
aa(lp1919
I1036836
aF3.6952054794520546
aa(lp1920
I1036991
aF2.83879781420765
aa(lp1921
I1037245
aF3.48504837291117
aa(lp1922
I1037705
aF4.004625346901018
aa(lp1923
I1037924
aF3.170175438596491
aa(lp1924
I1038880
aF2.9974402730375425
aa(lp1925
I1039555
aF3.181588902900378
aa(lp1926
I1039760
aF3.640062597809077
aa(lp1927
I1040475
aF3.6059602649006623
aa(lp1928
I1041084
aF3.847972972972973
aa(lp1929
I1041130
aF3.0411522633744856
aa(lp1930
I1041552
aF3.303125
aa(lp1931
I1042938
aF3.6899521531100477
aa(lp1932
I1043135
aF3.3875862068965517
aa(lp1933
I1044050
aF3.425646551724138
aa(lp1934
I1044742
aF4.056726094003242
aa(lp1935
I1044851
aF3.502608695652174
aa(lp1936
I1045053
aF3.2581755593803785
aa(lp1937
I1045879
aF2.7416020671834627
aa(lp1938
I1047830
aF3.296068796068796
aa(lp1939
I1048069
aF3.0841514726507713
aa(lp1940
I1048389
aF3.354198473282443
aa(lp1941
I1048629
aF3.39454806312769
aa(lp1942
I1048939
aF2.49438202247191
aa(lp1943
I1049142
aF3.8169533169533167
aa(lp1944
I1050232
aF3.197802197802198
aa(lp1945
I1053421
aF3.616
aa(lp1946
I1054137
aF2.9767441860465116
aa(lp1947
I1054564
aF2.8774403470715835
aa(lp1948
I1054783
aF3.6262626262626263
aa(lp1949
I1055009
aF3.2669616519174043
aa(lp1950
I1055714
aF4.343257443082312
aa(lp1951
I1056238
aF3.3924466338259442
aa(lp1952
I1056998
aF3.935085007727975
aa(lp1953
I1057021
aF4.009756097560976
aa(lp1954
I1057247
aF3.231366459627329
aa(lp1955
I1057513
aF3.9984496124031006
aa(lp1956
I1057992
aF2.626146788990826
aa(lp1957
I1058034
aF3.619047619047619
aa(lp1958
I1058639
aF3.7019089574155655
aa(lp1959
I1058930
aF4.108527131782946
aa(lp1960
I1059101
aF3.2797319932998326
aa(lp1961
I1059661
aF3.2413793103448274
aa(lp1962
I1059927
aF4.031986531986532
aa(lp1963
I1060057
aF2.403587443946188
aa(lp1964
I1060658
aF3.65288035450517
aa(lp1965
I1061195
aF3.111258865248227
aa(lp1966
I1061353
aF3.034369885433715
aa(lp1967
I1064540
aF3.7566137566137567
aa(lp1968
I1064554
aF3.4266409266409266
aa(lp1969
I1065402
aF2.9985185185185186
aa(lp1970
I1065445
aF2.852803738317757
aa(lp1971
I1065598
aF3.7819420783645654
aa(lp1972
I1065779
aF3.1712962962962963
aa(lp1973
I1066481
aF3.2084993359893756
aa(lp1974
I1067376
aF3.872193436960276
aa(lp1975
I1067761
aF3.1207598371777476
aa(lp1976
I1068610
aF3.4873949579831933
aa(lp1977
I1068656
aF3.664285714285714
aa(lp1978
I1068988
aF3.0914542728635683
aa(lp1979
I1069489
aF3.139896373056995
aa(lp1980
I1071266
aF3.9461400359066428
aa(lp1981
I1071510
aF3.631054131054131
aa(lp1982
I1071582
aF2.8814102564102564
aa(lp1983
I1072072
aF2.9080996884735204
aa(lp1984
I1072312
aF3.9562841530054644
aa(lp1985
I1072466
aF3.4625850340136055
aa(lp1986
I1072585
aF3.2095141700404857
aa(lp1987
I1073300
aF2.9615384615384617
aa(lp1988
I1073396
aF4.195417789757412
aa(lp1989
I1073729
aF4.353951890034364
aa(lp1990
I1074677
aF3.7759856630824373
aa(lp1991
I1076140
aF3.2372583479789103
aa(lp1992
I1077173
aF3.8833592534992225
aa(lp1993
I1077945
aF3.3789209535759097
aa(lp1994
I1078333
aF3.065
aa(lp1995
I1078800
aF4.074127906976744
aa(lp1996
I1079165
aF3.0702005730659025
aa(lp1997
I1079598
aF3.9722222222222223
aa(lp1998
I1079613
aF3.240650406504065
aa(lp1999
I1079964
aF3.074074074074074
aa(lp2000
I1080173
aF3.457044673539519
aa(lp2001
I1080872
aF3.850253807106599
aa(lp2002
I1081292
aF3.20625
aa(lp2003
I1081910
aF3.7538200339558574
aa(lp2004
I1082263
aF3.780426599749059
aa(lp2005
I1083531
aF2.6794258373205744
aa(lp2006
I1084484
aF3.1386861313868613
aa(lp2007
I1084626
aF2.9177592371871275
aa(lp2008
I1084999
aF3.0262172284644193
aa(lp2009
I1085207
aF4.078616352201258
aa(lp2010
I1085488
aF3.6397637795275593
aa(lp2011
I1085738
aF4.005263157894737
aa(lp2012
I1085991
aF3.557719054242003
aa(lp2013
I1086481
aF1.9914163090128756
aa(lp2014
I1087416
aF3.5498839907192576
aa(lp2015
I1087451
aF3.6921675774134792
aa(lp2016
I1087551
aF3.074829931972789
aa(lp2017
I1087944
aF3.182198952879581
aa(lp2018
I1088988
aF3.060031595576619
aa(lp2019
I1089664
aF2.2564516129032257
aa(lp2020
I1089692
aF3.30327868852459
aa(lp2021
I1090296
aF3.1754874651810585
aa(lp2022
I1090319
aF3.157754010695187
aa(lp2023
I1090765
aF3.7628865979381443
aa(lp2024
I1092521
aF3.1794425087108014
aa(lp2025
I1092677
aF3.6335616438356166
aa(lp2026
I1093403
aF3.580246913580247
aa(lp2027
I1093671
aF3.628939828080229
aa(lp2028
I1094767
aF3.904891304347826
aa(lp2029
I1094850
aF3.5171339563862927
aa(lp2030
I1095791
aF2.5253521126760563
aa(lp2031
I1095815
aF2.9414893617021276
aa(lp2032
I1096082
aF3.6913229018492175
aa(lp2033
I1096917
aF3.4361022364217253
aa(lp2034
I1097970
aF2.9966044142614603
aa(lp2035
I1098431
aF3.050441361916772
aa(lp2036
I1099833
aF3.1972318339100347
aa(lp2037
I1102418
aF4.304794520547945
aa(lp2038
I1102923
aF3.38863976083707
aa(lp2039
I1103080
aF3.41626213592233
aa(lp2040
I1104107
aF3.304428044280443
aa(lp2041
I1104884
aF3.6916030534351143
aa(lp2042
I1104997
aF3.6070901033973413
aa(lp2043
I1105029
aF3.2167321729365526
aa(lp2044
I1105158
aF3.6893203883495147
aa(lp2045
I1105686
aF4.082366589327147
aa(lp2046
I1106241
aF2.137864077669903
aa(lp2047
I1106280
aF4.06288532675709
aa(lp2048
I1106982
aF2.614388489208633
aa(lp2049
I1107099
aF3.7731629392971247
aa(lp2050
I1107588
aF2.4811475409836063
aa(lp2051
I1107860
aF3.375
aa(lp2052
I1108304
aF2.990990990990991
aa(lp2053
I1109043
aF3.5991379310344827
aa(lp2054
I1109700
aF3.9411764705882355
aa(lp2055
I1109861
aF3.0505050505050506
aa(lp2056
I1110156
aF2.8971459343026384
aa(lp2057
I1110164
aF3.231664726426077
aa(lp2058
I1110479
aF3.510917030567686
aa(lp2059
I1110906
aF3.5528169014084505
aa(lp2060
I1111556
aF3.5215889464594126
aa(lp2061
I1111943
aF3.8423005565862707
aa(lp2062
I1112365
aF2.007838745800672
aa(lp2063
I1112565
aF3.4684431977559607
aa(lp2064
I1114141
aF3.2165820642978002
aa(lp2065
I1114324
aF2.978960396039604
aa(lp2066
I1114342
aF3.6922279792746115
aa(lp2067
I1114349
aF2.8351822503961963
aa(lp2068
I1114362
aF3.2083333333333335
aa(lp2069
I1114801
aF3.2240802675585285
aa(lp2070
I1114884
aF3.428792569659443
aa(lp2071
I1115285
aF3.862992125984252
aa(lp2072
I1115451
aF3.345982142857143
aa(lp2073
I1115828
aF2.8363309352517985
aa(lp2074
I1116065
aF2.3807471264367814
aa(lp2075
I1116080
aF3.1410934744268078
aa(lp2076
I1116110
aF3.517412935323383
aa(lp2077
I1116129
aF3.14527027027027
aa(lp2078
I1116290
aF2.9045698924731185
aa(lp2079
I1117062
aF3.0185185185185186
aa(lp2080
I1117152
aF4.557544757033248
aa(lp2081
I1118103
aF3.1144654088050316
aa(lp2082
I1118120
aF3.3892857142857142
aa(lp2083
I1118220
aF3.6090342679127727
aa(lp2084
I1118587
aF3.5980066445182723
aa(lp2085
I1119020
aF3.109256449165402
aa(lp2086
I1119094
aF4.229166666666667
aa(lp2087
I1119113
aF3.392075078206465
aa(lp2088
I1119705
aF2.8195876288659796
aa(lp2089
I1120091
aF4.187279151943463
aa(lp2090
I1120721
aF3.15625
aa(lp2091
I1121663
aF3.360601001669449
aa(lp2092
I1121725
aF3.1494464944649447
aa(lp2093
I1122364
aF3.1940928270042193
aa(lp2094
I1122969
aF4.031034482758621
aa(lp2095
I1123175
aF3.104014598540146
aa(lp2096
I1123394
aF2.098654708520179
aa(lp2097
I1123618
aF2.827488151658768
aa(lp2098
I1124163
aF3.0381282495667246
aa(lp2099
I1124753
aF2.783269961977186
aa(lp2100
I1125075
aF3.130120481927711
aa(lp2101
I1125150
aF3.730769230769231
aa(lp2102
I1125733
aF3.931854199683043
aa(lp2103
I1125803
aF3.5703703703703704
aa(lp2104
I1126516
aF4.128865979381444
aa(lp2105
I1126555
aF3.1192528735632186
aa(lp2106
I1126751
aF3.451376146788991
aa(lp2107
I1127117
aF3.2682291666666665
aa(lp2108
I1127274
aF3.5743034055727554
aa(lp2109
I1128164
aF3.9708588957055215
aa(lp2110
I1128816
aF3.163132137030995
aa(lp2111
I1129340
aF3.2049036777583186
aa(lp2112
I1129687
aF3.6627118644067798
aa(lp2113
I1130133
aF2.9611111111111112
aa(lp2114
I1130380
aF2.9199535962877032
aa(lp2115
I1130826
aF3.0548885077186965
aa(lp2116
I1130863
aF2.4765840220385673
aa(lp2117
I1132514
aF2.8661538461538463
aa(lp2118
I1132764
aF3.593392630241423
aa(lp2119
I1132912
aF3.58477508650519
aa(lp2120
I1132940
aF2.678066037735849
aa(lp2121
I1133199
aF2.48961937716263
aa(lp2122
I1133611
aF3.142857142857143
aa(lp2123
I1133763
aF3.674362089914945
aa(lp2124
I1134379
aF3.5038845726970034
aa(lp2125
I1134816
aF3.640156453715776
aa(lp2126
I1135948
aF3.1239092495636998
aa(lp2127
I1136740
aF4.1416382252559725
aa(lp2128
I1139570
aF3.1847745750184773
aa(lp2129
I1139937
aF3.88986013986014
aa(lp2130
I1142880
aF3.3785714285714286
aa(lp2131
I1143750
aF2.907808090310442
aa(lp2132
I1144139
aF3.5070967741935486
aa(lp2133
I1144671
aF4.141347424042272
aa(lp2134
I1144771
aF3.697754749568221
aa(lp2135
I1144870
aF3.6607773851590104
aa(lp2136
I1144887
aF3.1326676176890156
aa(lp2137
I1144950
aF4.005338078291815
aa(lp2138
I1145003
aF3.4748091603053437
aa(lp2139
I1145387
aF3.8413793103448275
aa(lp2140
I1145939
aF3.5182119205298013
aa(lp2141
I1145956
aF2.709511568123393
aa(lp2142
I1146000
aF2.29297994269341
aa(lp2143
I1146551
aF3.182495344506518
aa(lp2144
I1146632
aF3.245045045045045
aa(lp2145
I1147251
aF4.16453382084095
aa(lp2146
I1147370
aF3.489795918367347
aa(lp2147
I1147641
aF1.6956077630234934
aa(lp2148
I1148103
aF3.720508166969147
aa(lp2149
I1148389
aF2.907458563535912
aa(lp2150
I1149582
aF3.5869565217391304
aa(lp2151
I1150035
aF3.671304347826087
aa(lp2152
I1150705
aF3.096774193548387
aa(lp2153
I1151461
aF3.0822368421052633
aa(lp2154
I1151483
aF3.0771992818671454
aa(lp2155
I1152249
aF3.6828528072837634
aa(lp2156
I1152594
aF3.145631067961165
aa(lp2157
I1153562
aF3.5521796565389696
aa(lp2158
I1153777
aF3.076923076923077
aa(lp2159
I1154027
aF4.228776978417266
aa(lp2160
I1154813
aF3.009630818619583
aa(lp2161
I1154874
aF4.0269814502529515
aa(lp2162
I1155404
aF3.027508090614887
aa(lp2163
I1155747
aF2.8672086720867207
aa(lp2164
I1156054
aF3.5676126878130217
aa(lp2165
I1156244
aF3.5809199318568994
aa(lp2166
I1156403
aF3.3321033210332103
aa(lp2167
I1156852
aF3.5061611374407584
aa(lp2168
I1157892
aF3.534513274336283
aa(lp2169
I1158822
aF3.169034090909091
aa(lp2170
I1160224
aF3.4109375
aa(lp2171
I1161725
aF4.418227215980025
aa(lp2172
I1161915
aF3.1305555555555555
aa(lp2173
I1162805
aF3.286493860845839
aa(lp2174
I1163123
aF3.274268104776579
aa(lp2175
I1165121
aF4.087440381558029
aa(lp2176
I1165236
aF3.7040417209908734
aa(lp2177
I1166090
aF3.022189349112426
aa(lp2178
I1166912
aF2.405628002745367
aa(lp2179
I1167767
aF4.334511189634864
aa(lp2180
I1168143
aF3.167883211678832
aa(lp2181
I1168424
aF3.76425855513308
aa(lp2182
I1168926
aF3.7445573294629897
aa(lp2183
I1169361
aF3.208261617900172
aa(lp2184
I1170093
aF3.728956228956229
aa(lp2185
I1170335
aF3.1850393700787403
aa(lp2186
I1171469
aF3.6914893617021276
aa(lp2187
I1171523
aF3.071207430340557
aa(lp2188
I1172177
aF3.3046357615894038
aa(lp2189
I1172958
aF3.4300595238095237
aa(lp2190
I1172980
aF4.445929526123937
aa(lp2191
I1173289
aF2.453318335208099
aa(lp2192
I1173570
aF2.94356005788712
aa(lp2193
I1174079
aF3.446124763705104
aa(lp2194
I1174530
aF3.5160599571734474
aa(lp2195
I1174811
aF3.2358078602620086
aa(lp2196
I1175001
aF3.2708719851576995
aa(lp2197
I1175391
aF3.739010989010989
aa(lp2198
I1176119
aF3.839563862928349
aa(lp2199
I1176322
aF3.180223285486443
aa(lp2200
I1176462
aF3.842923794712286
aa(lp2201
I1176763
aF3.4726277372262775
aa(lp2202
I1176779
aF4.028301886792453
aa(lp2203
I1176800
aF2.8605299860529985
aa(lp2204
I1177340
aF3.5391304347826087
aa(lp2205
I1178332
aF3.7705977382875604
aa(lp2206
I1178846
aF3.7
aa(lp2207
I1178938
aF3.8338926174496644
aa(lp2208
I1179117
aF3.2427797833935017
aa(lp2209
I1179646
aF3.3620414673046253
aa(lp2210
I1181111
aF3.0620915032679736
aa(lp2211
I1181550
aF3.8104125736738705
aa(lp2212
I1181558
aF3.59915164369035
aa(lp2213
I1181609
aF3.3458823529411763
aa(lp2214
I1181784
aF3.538805970149254
aa(lp2215
I1182475
aF3.3664
aa(lp2216
I1183174
aF2.9149659863945576
aa(lp2217
I1183823
aF3.9254571026722926
aa(lp2218
I1184071
aF3.6950819672131145
aa(lp2219
I1184388
aF3.6514285714285712
aa(lp2220
I1184498
aF3.6894904458598727
aa(lp2221
I1184537
aF2.8620309050772628
aa(lp2222
I1187252
aF3.5134099616858236
aa(lp2223
I1187457
aF3.077966101694915
aa(lp2224
I1187757
aF3.0584070796460177
aa(lp2225
I1187949
aF2.9541420118343193
aa(lp2226
I1189210
aF4.044520547945205
aa(lp2227
I1189269
aF4.300376647834275
aa(lp2228
I1190685
aF3.1996527777777777
aa(lp2229
I1190829
aF3.1130434782608694
aa(lp2230
I1190964
aF1.9910394265232976
aa(lp2231
I1191408
aF3.406720741599073
aa(lp2232
I1191617
aF3.576388888888889
aa(lp2233
I1192830
aF2.7409948542024014
aa(lp2234
I1193468
aF3.8798751950078003
aa(lp2235
I1193872
aF3.839160839160839
aa(lp2236
I1194467
aF3.0484330484330484
aa(lp2237
I1194698
aF3.1318051575931234
aa(lp2238
I1194759
aF3.760655737704918
aa(lp2239
I1194911
aF3.1962025316455698
aa(lp2240
I1195863
aF3.7121464226289516
aa(lp2241
I1196131
aF3.7078313253012047
aa(lp2242
I1197233
aF1.8140096618357489
aa(lp2243
I1197388
aF3.122895622895623
aa(lp2244
I1197493
aF2.311990686845169
aa(lp2245
I1197972
aF3.644088669950739
aa(lp2246
I1198556
aF3.8453947368421053
aa(lp2247
I1198632
aF3.035330261136713
aa(lp2248
I1198828
aF3.263157894736842
aa(lp2249
I1198962
aF3.79291553133515
aa(lp2250
I1199011
aF2.858034321372855
aa(lp2251
I1199475
aF3.0340715502555367
aa(lp2252
I1199611
aF3.600361663652803
aa(lp2253
I1200256
aF3.470183486238532
aa(lp2254
I1200461
aF3.659679408138101
aa(lp2255
I1200479
aF3.553921568627451
aa(lp2256
I1201695
aF3.822274881516588
aa(lp2257
I1202962
aF2.9356617647058822
aa(lp2258
I1203347
aF3.1534482758620688
aa(lp2259
I1203445
aF3.46843853820598
aa(lp2260
I1203779
aF3.961904761904762
aa(lp2261
I1203892
aF3.3361629881154498
aa(lp2262
I1203991
aF3.5008944543828266
aa(lp2263
I1204294
aF3.4107806691449816
aa(lp2264
I1204323
aF3.8
aa(lp2265
I1204865
aF2.9602076124567476
aa(lp2266
I1205174
aF3.868292682926829
aa(lp2267
I1206843
aF2.878186968838527
aa(lp2268
I1207104
aF3.6394927536231885
aa(lp2269
I1207170
aF3.132492113564669
aa(lp2270
I1207990
aF3.7416666666666667
aa(lp2271
I1208146
aF3.8597475455820476
aa(lp2272
I1208622
aF3.3152173913043477
aa(lp2273
I1210199
aF4.169373549883991
aa(lp2274
I1210904
aF3.4880239520958085
aa(lp2275
I1211016
aF3.9663461538461537
aa(lp2276
I1212887
aF3.4451939291736933
aa(lp2277
I1213178
aF3.1049382716049383
aa(lp2278
I1213587
aF3.926865671641791
aa(lp2279
I1214125
aF3.456637168141593
aa(lp2280
I1214181
aF3.519047619047619
aa(lp2281
I1215094
aF4.006600660066007
aa(lp2282
I1215709
aF3.807751937984496
aa(lp2283
I1216387
aF2.722614840989399
aa(lp2284
I1216880
aF3.4848101265822784
aa(lp2285
I1217751
aF3.8563432835820897
aa(lp2286
I1219733
aF3.456637168141593
aa(lp2287
I1220170
aF2.960750853242321
aa(lp2288
I1220185
aF3.4376770538243626
aa(lp2289
I1220431
aF3.302267002518892
aa(lp2290
I1221563
aF3.2751091703056767
aa(lp2291
I1222167
aF2.995
aa(lp2292
I1222252
aF3.4982758620689656
aa(lp2293
I1223664
aF3.369718309859155
aa(lp2294
I1223912
aF3.1694417238001957
aa(lp2295
I1224296
aF2.6828528072837634
aa(lp2296
I1224299
aF3.493838028169014
aa(lp2297
I1224756
aF2.99009900990099
aa(lp2298
I1225682
aF3.317365269461078
aa(lp2299
I1225914
aF3.377253814147018
aa(lp2300
I1226073
aF3.477093206951027
aa(lp2301
I1226844
aF3.574200913242009
aa(lp2302
I1226928
aF3.551630434782609
aa(lp2303
I1227322
aF1.7584745762711864
aa(lp2304
I1227730
aF2.534506089309878
aa(lp2305
I1228066
aF3.725233644859813
aa(lp2306
I1229372
aF3.391843971631206
aa(lp2307
I1229545
aF3.081081081081081
aa(lp2308
I1229628
aF3.1020608439646713
aa(lp2309
I1229656
aF4.097170971709717
aa(lp2310
I1230594
aF2.9279279279279278
aa(lp2311
I1231842
aF3.5884297520661157
aa(lp2312
I1232164
aF3.368295589988081
aa(lp2313
I1232251
aF3.619500594530321
aa(lp2314
I1232404
aF3.4844036697247707
aa(lp2315
I1232740
aF3.3408304498269894
aa(lp2316
I1233297
aF3.1355206847360915
aa(lp2317
I1233312
aF2.8106617647058822
aa(lp2318
I1233457
aF3.825771324863884
aa(lp2319
I1233831
aF3.2852459016393443
aa(lp2320
I1236924
aF3.0851063829787235
aa(lp2321
I1236929
aF3.0396551724137932
aa(lp2322
I1238184
aF2.7788018433179724
aa(lp2323
I1239121
aF2.3973634651600753
aa(lp2324
I1239283
aF2.4835948644793153
aa(lp2325
I1239467
aF2.8013937282229966
aa(lp2326
I1239496
aF3.5688073394495414
aa(lp2327
I1240130
aF3.3350694444444446
aa(lp2328
I1240334
aF2.701720841300191
aa(lp2329
I1240865
aF3.685567010309278
aa(lp2330
I1241060
aF3.455840455840456
aa(lp2331
I1241893
aF4.461434370771313
aa(lp2332
I1241958
aF3.4582089552238804
aa(lp2333
I1242044
aF3.183020948180816
aa(lp2334
I1242432
aF3.295795795795796
aa(lp2335
I1243196
aF2.992523364485981
aa(lp2336
I1243711
aF2.953565505804312
aa(lp2337
I1243789
aF2.9654545454545453
aa(lp2338
I1244123
aF3.5900962861072903
aa(lp2339
I1245143
aF3.560693641618497
aa(lp2340
I1246893
aF3.1421404682274248
aa(lp2341
I1247452
aF3.1139455782312924
aa(lp2342
I1247506
aF3.2163543441226574
aa(lp2343
I1247574
aF2.68641975308642
aa(lp2344
I1248029
aF3.338827838827839
aa(lp2345
I1250006
aF3.490787269681742
aa(lp2346
I1250231
aF3.4695340501792113
aa(lp2347
I1250515
aF3.2626970227670755
aa(lp2348
I1250802
aF3.5303867403314917
aa(lp2349
I1251664
aF2.8281786941580758
aa(lp2350
I1253619
aF3.3443935926773456
aa(lp2351
I1255543
aF3.1607773851590104
aa(lp2352
I1255703
aF3.5693877551020408
aa(lp2353
I1256752
aF3.9872286079182633
aa(lp2354
I1256816
aF3.5299295774647885
aa(lp2355
I1257336
aF2.7322239031770046
aa(lp2356
I1257450
aF3.1330589849108366
aa(lp2357
I1257454
aF2.3399800598205385
aa(lp2358
I1258349
aF3.362162162162162
aa(lp2359
I1258738
aF3.5420054200542004
aa(lp2360
I1259374
aF3.1498637602179835
aa(lp2361
I1259696
aF3.0458265139116203
aa(lp2362
I1259776
aF3.2151898734177213
aa(lp2363
I1260854
aF2.902536715620828
aa(lp2364
I1261789
aF3.6028880866425994
aa(lp2365
I1262403
aF2.9529837251356237
aa(lp2366
I1262523
aF3.7948717948717947
aa(lp2367
I1262628
aF3.06021897810219
aa(lp2368
I1262684
aF3.3658536585365852
aa(lp2369
I1262753
aF2.6662721893491126
aa(lp2370
I1262887
aF3.8997005988023954
aa(lp2371
I1263008
aF3.376114081996435
aa(lp2372
I1264009
aF4.104672897196262
aa(lp2373
I1265131
aF3.5139664804469275
aa(lp2374
I1266589
aF4.399286987522282
aa(lp2375
I1266708
aF3.169811320754717
aa(lp2376
I1267586
aF4.015463917525773
aa(lp2377
I1267783
aF3.4939024390243905
aa(lp2378
I1267805
aF2.970496894409938
aa(lp2379
I1268483
aF3.812807881773399
aa(lp2380
I1268699
aF2.641337386018237
aa(lp2381
I1269877
aF3.1010452961672472
aa(lp2382
I1270238
aF3.564648117839607
aa(lp2383
I1270980
aF3.6104129263913824
aa(lp2384
I1271040
aF3.1526315789473682
aa(lp2385
I1271816
aF3.805389221556886
aa(lp2386
I1272379
aF1.819976076555024
aa(lp2387
I1272479
aF3.279816513761468
aa(lp2388
I1273765
aF3.2862010221465074
aa(lp2389
I1273979
aF3.586206896551724
aa(lp2390
I1274035
aF3.670103092783505
aa(lp2391
I1275089
aF3.405940594059406
aa(lp2392
I1275094
aF3.4008350730688934
aa(lp2393
I1275275
aF2.944645006016847
aa(lp2394
I1275703
aF3.9437609841827768
aa(lp2395
I1275790
aF3.377207062600321
aa(lp2396
I1275794
aF3.5090609555189456
aa(lp2397
I1276473
aF2.306832298136646
aa(lp2398
I1276711
aF3.38748495788207
aa(lp2399
I1276913
aF4.310935441370224
aa(lp2400
I1276983
aF2.7177700348432055
aa(lp2401
I1277678
aF2.8971583220568338
aa(lp2402
I1277779
aF3.714939024390244
aa(lp2403
I1278249
aF3.6607142857142856
aa(lp2404
I1278961
aF3.3278955954323
aa(lp2405
I1279360
aF3.2134615384615386
aa(lp2406
I1279821
aF3.638403990024938
aa(lp2407
I1279939
aF4.322289156626506
aa(lp2408
I1280149
aF3.0806878306878307
aa(lp2409
I1280761
aF3.460772104607721
aa(lp2410
I1281478
aF3.7383333333333333
aa(lp2411
I1281882
aF2.8094059405940595
aa(lp2412
I1282217
aF2.761545711592837
aa(lp2413
I1283137
aF3.1823899371069184
aa(lp2414
I1283171
aF3.259872611464968
aa(lp2415
I1284016
aF2.5285714285714285
aa(lp2416
I1287017
aF2.9379615952732645
aa(lp2417
I1287490
aF3.7719745222929935
aa(lp2418
I1287892
aF2.5912263210368893
aa(lp2419
I1287939
aF3.2482853223593966
aa(lp2420
I1288554
aF3.61525974025974
aa(lp2421
I1288627
aF3.3141361256544504
aa(lp2422
I1289515
aF3.9291217257318953
aa(lp2423
I1289999
aF3.453929539295393
aa(lp2424
I1290593
aF4.036363636363636
aa(lp2425
I1290993
aF2.808149405772496
aa(lp2426
I1291455
aF3.067331670822943
aa(lp2427
I1291667
aF3.6247848537005165
aa(lp2428
I1292165
aF3.4270650263620386
aa(lp2429
I1292631
aF2.6576168929110104
aa(lp2430
I1293514
aF3.1817073170731707
aa(lp2431
I1293986
aF3.3056537102473498
aa(lp2432
I1294425
aF3.4768722466960353
aa(lp2433
I1294471
aF2.8376436781609193
aa(lp2434
I1295471
aF3.609579100145138
aa(lp2435
I1295473
aF3.696649029982363
aa(lp2436
I1295669
aF3.4133986928104574
aa(lp2437
I1296163
aF3.1516754850088184
aa(lp2438
I1296679
aF2.626848691695108
aa(lp2439
I1297031
aF4.3771760154738875
aa(lp2440
I1297347
aF3.36568848758465
aa(lp2441
I1298147
aF3.7083333333333335
aa(lp2442
I1298173
aF3.607843137254902
aa(lp2443
I1298190
aF3.6037463976945245
aa(lp2444
I1298511
aF2.7863660762211486
aa(lp2445
I1299355
aF2.943396226415094
aa(lp2446
I1299887
aF3.638695652173913
aa(lp2447
I1300029
aF3.289568345323741
aa(lp2448
I1300036
aF2.8395245170876673
aa(lp2449
I1300582
aF3.130864197530864
aa(lp2450
I1300687
aF3.1889168765743072
aa(lp2451
I1300759
aF3.7096256684491977
aa(lp2452
I1301819
aF3.57223113964687
aa(lp2453
I1302968
aF3.2254601226993866
aa(lp2454
I1303244
aF2.9702479338842975
aa(lp2455
I1303306
aF3.0634441087613293
aa(lp2456
I1306304
aF2.728787878787879
aa(lp2457
I1306528
aF3.270718232044199
aa(lp2458
I1309057
aF4.660766961651918
aa(lp2459
I1309838
aF5.0
aa(lp2460
I1310250
aF3.294713160854893
aa(lp2461
I1310425
aF2.988360814742968
aa(lp2462
I1310748
aF3.2476190476190476
aa(lp2463
I1311888
aF3.727954971857411
aa(lp2464
I1312066
aF3.316
aa(lp2465
I1312412
aF3.444743935309973
aa(lp2466
I1312530
aF3.1539792387543253
aa(lp2467
I1312635
aF2.7374810318664644
aa(lp2468
I1312661
aF3.536475869809203
aa(lp2469
I1313126
aF3.3535469107551488
aa(lp2470
I1313129
aF3.2183406113537116
aa(lp2471
I1313714
aF3.343703703703704
aa(lp2472
I1314869
aF2.964925954793453
aa(lp2473
I1315201
aF3.338616714697406
aa(lp2474
I1315370
aF3.9623931623931625
aa(lp2475
I1315654
aF3.269949066213922
aa(lp2476
I1315827
aF3.5638148667601683
aa(lp2477
I1316671
aF2.569924812030075
aa(lp2478
I1316922
aF3.6148148148148147
aa(lp2479
I1317671
aF3.080336648814078
aa(lp2480
I1317871
aF3.2135761589403975
aa(lp2481
I1318289
aF3.2347480106100797
aa(lp2482
I1318951
aF3.128060263653484
aa(lp2483
I1319449
aF3.49912739965096
aa(lp2484
I1319658
aF3.561917443408788
aa(lp2485
I1320402
aF3.938069216757741
aa(lp2486
I1320587
aF3.908450704225352
aa(lp2487
I1321396
aF3.8061389337641356
aa(lp2488
I1321481
aF3.6684397163120566
aa(lp2489
I1322233
aF3.1718464351005484
aa(lp2490
I1322467
aF3.5947019867549668
aa(lp2491
I1322839
aF3.5359877488514546
aa(lp2492
I1323848
aF3.0902255639097747
aa(lp2493
I1324830
aF3.7556142668428003
aa(lp2494
I1325977
aF3.02
aa(lp2495
I1326195
aF3.127586206896552
aa(lp2496
I1326994
aF2.810641627543036
aa(lp2497
I1327727
aF3.544658493870403
aa(lp2498
I1327900
aF3.0289687137891077
aa(lp2499
I1328011
aF3.341500765696784
aa(lp2500
I1328954
aF3.778947368421053
aa(lp2501
I1329779
aF3.532484076433121
aa(lp2502
I1329904
aF2.7854545454545456
aa(lp2503
I1330841
aF2.905821917808219
aa(lp2504
I1331887
aF3.1744749596122777
aa(lp2505
I1332107
aF3.7815126050420167
aa(lp2506
I1332725
aF2.983112183353438
aa(lp2507
I1333129
aF3.1776
aa(lp2508
I1333494
aF4.278551532033426
aa(lp2509
I1333911
aF3.2581047381546133
aa(lp2510
I1334401
aF3.277401894451962
aa(lp2511
I1334853
aF3.1172022684310017
aa(lp2512
I1337026
aF2.9085714285714284
aa(lp2513
I1337293
aF3.1801652892561982
aa(lp2514
I1337699
aF3.563961485557084
aa(lp2515
I1339784
aF2.6336805555555554
aa(lp2516
I1340377
aF2.936688311688312
aa(lp2517
I1341214
aF3.223491027732463
aa(lp2518
I1342357
aF3.166355140186916
aa(lp2519
I1344086
aF3.127007299270073
aa(lp2520
I1344624
aF1.5737704918032787
aa(lp2521
I1344791
aF3.4011713030746704
aa(lp2522
I1346081
aF2.6172638436482085
aa(lp2523
I1347528
aF4.072183098591549
aa(lp2524
I1347916
aF3.231552162849873
aa(lp2525
I1347991
aF3.091240875912409
aa(lp2526
I1348148
aF2.968926553672316
aa(lp2527
I1348335
aF3.2261146496815285
aa(lp2528
I1348456
aF2.905027932960894
aa(lp2529
I1348610
aF2.696113074204947
aa(lp2530
I1349711
aF3.1403726708074533
aa(lp2531
I1349717
aF4.044709388971684
aa(lp2532
I1351373
aF3.4479338842975205
aa(lp2533
I1351421
aF3.2188796680497926
aa(lp2534
I1351594
aF3.2231833910034604
aa(lp2535
I1351706
aF3.6394927536231885
aa(lp2536
I1351898
aF3.2964601769911503
aa(lp2537
I1352747
aF2.8890675241157555
aa(lp2538
I1352912
aF4.300925925925926
aa(lp2539
I1354717
aF3.1642441860465116
aa(lp2540
I1356239
aF4.074670571010249
aa(lp2541
I1357072
aF3.2724832214765103
aa(lp2542
I1357209
aF3.2993572084481175
aa(lp2543
I1357786
aF3.0603932584269664
aa(lp2544
I1358681
aF2.9403747870528107
aa(lp2545
I1358962
aF3.271062271062271
aa(lp2546
I1359770
aF4.413223140495868
aa(lp2547
I1360042
aF3.362218370883882
aa(lp2548
I1360936
aF3.5330788804071247
aa(lp2549
I1361167
aF4.120996441281139
aa(lp2550
I1361614
aF3.7703435804701626
aa(lp2551
I1362091
aF3.4672566371681417
aa(lp2552
I1363315
aF3.962962962962963
aa(lp2553
I1363333
aF4.437185929648241
aa(lp2554
I1365170
aF3.4171122994652405
aa(lp2555
I1365299
aF3.189090909090909
aa(lp2556
I1365840
aF3.9159859976662776
aa(lp2557
I1366054
aF3.2785467128027683
aa(lp2558
I1367101
aF3.3688663282571913
aa(lp2559
I1368650
aF3.6260575296108293
aa(lp2560
I1370190
aF2.6508196721311474
aa(lp2561
I1370506
aF3.2135593220338983
aa(lp2562
I1370564
aF2.78828125
aa(lp2563
I1370666
aF2.9398976982097187
aa(lp2564
I1371031
aF3.411663807890223
aa(lp2565
I1371238
aF3.6265734265734264
aa(lp2566
I1371451
aF3.7711138310893513
aa(lp2567
I1372635
aF3.962540716612378
aa(lp2568
I1373956
aF3.3081664098613253
aa(lp2569
I1374197
aF3.012558869701727
aa(lp2570
I1374216
aF1.4901960784313726
aa(lp2571
I1375880
aF3.6596066565809378
aa(lp2572
I1376923
aF3.3328840970350404
aa(lp2573
I1377637
aF3.1852367688022283
aa(lp2574
I1380915
aF3.6826241134751774
aa(lp2575
I1380947
aF3.530944625407166
aa(lp2576
I1381552
aF2.902482269503546
aa(lp2577
I1382872
aF3.133419689119171
aa(lp2578
I1383426
aF3.5154975530179446
aa(lp2579
I1383642
aF3.8595890410958904
aa(lp2580
I1383836
aF3.679054054054054
aa(lp2581
I1385356
aF2.8600269179004036
aa(lp2582
I1385580
aF3.594268476621418
aa(lp2583
I1385788
aF2.3204592901878915
aa(lp2584
I1386457
aF3.661870503597122
aa(lp2585
I1386737
aF3.4353146853146854
aa(lp2586
I1387049
aF3.440922190201729
aa(lp2587
I1387099
aF3.61993769470405
aa(lp2588
I1387521
aF3.2861635220125787
aa(lp2589
I1388216
aF3.4150943396226414
aa(lp2590
I1388677
aF3.205270457697642
aa(lp2591
I1388741
aF3.5759717314487633
aa(lp2592
I1389360
aF3.563025210084034
aa(lp2593
I1391586
aF2.9
aa(lp2594
I1391647
aF2.917057902973396
aa(lp2595
I1392598
aF2.773156899810964
aa(lp2596
I1392942
aF3.9747706422018347
aa(lp2597
I1393159
aF2.9314285714285715
aa(lp2598
I1394012
aF2.8688741721854303
aa(lp2599
I1394516
aF3.0123456790123457
aa(lp2600
I1394988
aF3.7077464788732395
aa(lp2601
I1395543
aF3.144578313253012
aa(lp2602
I1397022
aF3.5220949263502455
aa(lp2603
I1397082
aF3.037142857142857
aa(lp2604
I1397843
aF3.8911419423692637
aa(lp2605
I1398256
aF3.465725806451613
aa(lp2606
I1399249
aF3.1900212314225054
aa(lp2607
I1400108
aF3.0479876160990713
aa(lp2608
I1400154
aF2.8736979166666665
aa(lp2609
I1401233
aF3.7309734513274337
aa(lp2610
I1401726
aF4.152431011826544
aa(lp2611
I1402224
aF2.9206842923794714
aa(lp2612
I1402612
aF2.698205546492659
aa(lp2613
I1403184
aF3.346031746031746
aa(lp2614
I1403217
aF2.282471157424637
aa(lp2615
I1403686
aF3.6316758747697975
aa(lp2616
I1405395
aF3.12448132780083
aa(lp2617
I1406473
aF3.409090909090909
aa(lp2618
I1406633
aF3.493233082706767
aa(lp2619
I1407227
aF2.791601866251944
aa(lp2620
I1407746
aF2.71664167916042
aa(lp2621
I1407936
aF3.9499105545617175
aa(lp2622
I1408249
aF2.7918871252204585
aa(lp2623
I1408280
aF3.656862745098039
aa(lp2624
I1409104
aF3.056029232643118
aa(lp2625
I1409687
aF3.497536945812808
aa(lp2626
I1409759
aF3.843351548269581
aa(lp2627
I1409829
aF3.6696113074204946
aa(lp2628
I1410683
aF2.8914285714285715
aa(lp2629
I1410753
aF3.287958115183246
aa(lp2630
I1412189
aF3.1316129032258067
aa(lp2631
I1412213
aF3.718390804597701
aa(lp2632
I1412898
aF2.523728813559322
aa(lp2633
I1413367
aF4.006369426751593
aa(lp2634
I1413434
aF3.576642335766423
aa(lp2635
I1415024
aF3.3461538461538463
aa(lp2636
I1416034
aF3.0258620689655173
aa(lp2637
I1416190
aF3.9911347517730498
aa(lp2638
I1416455
aF3.4616695059625213
aa(lp2639
I1416836
aF2.824970828471412
aa(lp2640
I1417705
aF2.9795275590551182
aa(lp2641
I1418126
aF3.247272727272727
aa(lp2642
I1418477
aF3.6476510067114094
aa(lp2643
I1418521
aF3.1822033898305087
aa(lp2644
I1419103
aF2.7671641791044777
aa(lp2645
I1419750
aF3.627049180327869
aa(lp2646
I1420020
aF2.588932806324111
aa(lp2647
I1420308
aF3.765409383624655
aa(lp2648
I1421913
aF2.597107438016529
aa(lp2649
I1422346
aF4.161178509532062
aa(lp2650
I1423063
aF3.2954545454545454
aa(lp2651
I1423249
aF3.7811094452773615
aa(lp2652
I1423310
aF3.447712418300654
aa(lp2653
I1423566
aF3.582474226804124
aa(lp2654
I1423668
aF3.7083993660855783
aa(lp2655
I1423956
aF3.5485294117647057
aa(lp2656
I1424084
aF2.9723577235772356
aa(lp2657
I1424177
aF3.3824503311258276
aa(lp2658
I1424487
aF3.0441347270615564
aa(lp2659
I1424768
aF3.3604060913705585
aa(lp2660
I1425723
aF3.463955637707948
aa(lp2661
I1427330
aF3.5008665511265167
aa(lp2662
I1427380
aF3.1882998171846437
aa(lp2663
I1428452
aF3.5454545454545454
aa(lp2664
I1428930
aF2.9286486486486485
aa(lp2665
I1429631
aF4.378228782287823
aa(lp2666
I1429794
aF3.767402376910017
aa(lp2667
I1430108
aF3.38
aa(lp2668
I1430398
aF3.3536
aa(lp2669
I1430920
aF3.3328100470957613
aa(lp2670
I1431160
aF2.9911816578483243
aa(lp2671
I1431311
aF2.983844911147011
aa(lp2672
I1431356
aF3.5814285714285714
aa(lp2673
I1431636
aF2.7584187408491947
aa(lp2674
I1431808
aF3.413005272407733
aa(lp2675
I1432044
aF3.3484848484848486
aa(lp2676
I1432474
aF3.0439932318104908
aa(lp2677
I1432790
aF2.9751724137931035
aa(lp2678
I1434507
aF4.7635036496350365
aa(lp2679
I1435335
aF3.3737704918032785
aa(lp2680
I1435891
aF3.212290502793296
aa(lp2681
I1436357
aF3.0366056572379367
aa(lp2682
I1436668
aF3.520253164556962
aa(lp2683
I1436780
aF2.986682808716707
aa(lp2684
I1437139
aF3.17814371257485
aa(lp2685
I1437853
aF3.5283993115318415
aa(lp2686
I1438031
aF4.317857142857143
aa(lp2687
I1439015
aF3.472972972972973
aa(lp2688
I1439261
aF3.4210526315789473
aa(lp2689
I1439882
aF3.2535714285714286
aa(lp2690
I1440126
aF3.0991304347826087
aa(lp2691
I1441086
aF3.511830635118306
aa(lp2692
I1442089
aF3.292929292929293
aa(lp2693
I1442105
aF3.237410071942446
aa(lp2694
I1442150
aF2.8034591194968552
aa(lp2695
I1442154
aF3.2057245080500896
aa(lp2696
I1444057
aF3.7747252747252746
aa(lp2697
I1444177
aF4.221014492753623
aa(lp2698
I1444287
aF3.6646795827123695
aa(lp2699
I1444489
aF3.4841402337228713
aa(lp2700
I1444657
aF2.5871794871794873
aa(lp2701
I1444777
aF3.2766203703703702
aa(lp2702
I1446775
aF3.269767441860465
aa(lp2703
I1446909
aF3.706849315068493
aa(lp2704
I1447639
aF3.2313937753721245
aa(lp2705
I1447641
aF3.0318021201413425
aa(lp2706
I1449229
aF3.735567970204842
aa(lp2707
I1449358
aF3.36061684460261
aa(lp2708
I1449810
aF2.909252669039146
aa(lp2709
I1450484
aF3.7247956403269753
aa(lp2710
I1450860
aF3.0869565217391304
aa(lp2711
I1450883
aF3.6541717049576783
aa(lp2712
I1452127
aF3.811023622047244
aa(lp2713
I1452396
aF3.966499162479062
aa(lp2714
I1452454
aF3.912762520193861
aa(lp2715
I1452669
aF2.8043264503441496
aa(lp2716
I1452675
aF3.6672760511883
aa(lp2717
I1453928
aF3.476345840130506
aa(lp2718
I1454142
aF3.7079037800687287
aa(lp2719
I1456270
aF2.4327830188679247
aa(lp2720
I1456579
aF3.848609680741504
aa(lp2721
I1456621
aF3.349911190053286
aa(lp2722
I1457134
aF3.12012012012012
aa(lp2723
I1457728
aF3.6445993031358883
aa(lp2724
I1458814
aF3.778102189781022
aa(lp2725
I1458854
aF3.389830508474576
aa(lp2726
I1458868
aF2.9468892261001516
aa(lp2727
I1459727
aF3.4805045871559632
aa(lp2728
I1460343
aF2.587037037037037
aa(lp2729
I1460561
aF3.171826625386997
aa(lp2730
I1460630
aF3.0014880952380953
aa(lp2731
I1460800
aF3.611666666666667
aa(lp2732
I1460897
aF3.358695652173913
aa(lp2733
I1461435
aF1.3674745895230649
aa(lp2734
I1462488
aF3.5215453194650816
aa(lp2735
I1463088
aF3.0366492146596857
aa(lp2736
I1463219
aF3.2030075187969924
aa(lp2737
I1463939
aF3.0735042735042737
aa(lp2738
I1464011
aF2.9831365935919054
aa(lp2739
I1464315
aF3.758241758241758
aa(lp2740
I1466320
aF3.4003322259136213
aa(lp2741
I1466323
aF3.5708390646492436
aa(lp2742
I1466382
aF3.2206076618229855
aa(lp2743
I1466453
aF3.5657657657657658
aa(lp2744
I1467105
aF3.2550231839258115
aa(lp2745
I1468007
aF3.2072463768115944
aa(lp2746
I1468812
aF3.536096256684492
aa(lp2747
I1468972
aF3.5714285714285716
aa(lp2748
I1469447
aF3.420494699646643
aa(lp2749
I1470113
aF3.379032258064516
aa(lp2750
I1470123
aF3.0074028377544724
aa(lp2751
I1470420
aF3.6724409448818895
aa(lp2752
I1470972
aF3.4904270986745214
aa(lp2753
I1472689
aF3.8446069469835464
aa(lp2754
I1472772
aF3.781981981981982
aa(lp2755
I1473595
aF3.621584699453552
aa(lp2756
I1473641
aF4.067796610169491
aa(lp2757
I1473666
aF4.103327495621716
aa(lp2758
I1473980
aF3.129211403184006
aa(lp2759
I1474480
aF2.6347517730496453
aa(lp2760
I1475543
aF3.2273504273504274
aa(lp2761
I1476383
aF2.8500749625187405
aa(lp2762
I1477153
aF2.8462469733656173
aa(lp2763
I1477154
aF3.7765625
aa(lp2764
I1478117
aF3.62625
aa(lp2765
I1478291
aF3.863138686131387
aa(lp2766
I1478381
aF3.7612809315866085
aa(lp2767
I1478444
aF3.122077922077922
aa(lp2768
I1478933
aF3.5349143610013174
aa(lp2769
I1479892
aF2.9653614457831323
aa(lp2770
I1480571
aF2.886872998932764
aa(lp2771
I1480781
aF2.8061440677966103
aa(lp2772
I1480807
aF3.5114795918367347
aa(lp2773
I1480841
aF3.8503401360544216
aa(lp2774
I1480900
aF3.6043165467625897
aa(lp2775
I1481961
aF3.0423357664233577
aa(lp2776
I1482921
aF3.8110964332893
aa(lp2777
I1483251
aF4.201048951048951
aa(lp2778
I1483639
aF3.490125673249551
aa(lp2779
I1483654
aF2.9385307346326837
aa(lp2780
I1483664
aF3.6864784546805347
aa(lp2781
I1483838
aF3.458588957055215
aa(lp2782
I1483852
aF3.503987240829346
aa(lp2783
I1484157
aF3.1613566289825283
aa(lp2784
I1484284
aF3.9673321234119783
aa(lp2785
I1485835
aF3.7033747779751334
aa(lp2786
I1486253
aF4.049382716049383
aa(lp2787
I1486389
aF4.275815217391305
aa(lp2788
I1486501
aF4.2450248756218905
aa(lp2789
I1486636
aF3.6895910780669143
aa(lp2790
I1486688
aF4.037837837837838
aa(lp2791
I1486829
aF2.4994350282485875
aa(lp2792
I1486851
aF2.9946236559139785
aa(lp2793
I1486911
aF3.459909228441755
aa(lp2794
I1486956
aF3.271345029239766
aa(lp2795
I1487011
aF3.9864176570458403
aa(lp2796
I1488844
aF3.2761795166858456
aa(lp2797
I1488926
aF3.070048309178744
aa(lp2798
I1489224
aF3.4967880085653107
aa(lp2799
I1489566
aF3.1492805755395685
aa(lp2800
I1490538
aF4.425101214574899
aa(lp2801
I1490642
aF2.9405405405405407
aa(lp2802
I1490775
aF3.5288966725043784
aa(lp2803
I1492086
aF3.4966666666666666
aa(lp2804
I1492122
aF3.107485604606526
aa(lp2805
I1494162
aF3.4447236180904524
aa(lp2806
I1494275
aF3.5017605633802815
aa(lp2807
I1494683
aF3.2689922480620157
aa(lp2808
I1494821
aF3.1865671641791047
aa(lp2809
I1495111
aF3.168744007670182
aa(lp2810
I1496080
aF2.9461172741679875
aa(lp2811
I1497845
aF3.5663082437275984
aa(lp2812
I1497891
aF3.2034188034188036
aa(lp2813
I1498236
aF3.630088495575221
aa(lp2814
I1498767
aF2.906862745098039
aa(lp2815
I1500017
aF3.308270676691729
aa(lp2816
I1500397
aF3.531810766721044
aa(lp2817
I1501018
aF3.3530465949820787
aa(lp2818
I1501943
aF3.535928143712575
aa(lp2819
I1502539
aF3.311349693251534
aa(lp2820
I1502648
aF2.9191073919107393
aa(lp2821
I1503647
aF2.965
aa(lp2822
I1505182
aF3.6839285714285714
aa(lp2823
I1505732
aF4.360759493670886
aa(lp2824
I1505821
aF3.273134328358209
aa(lp2825
I1508625
aF3.4090202177293936
aa(lp2826
I1508638
aF3.4229390681003586
aa(lp2827
I1509395
aF3.4330175913396483
aa(lp2828
I1510091
aF2.65266742338252
aa(lp2829
I1510380
aF3.3608247422680413
aa(lp2830
I1510806
aF3.585714285714286
aa(lp2831
I1510943
aF3.4907975460122698
aa(lp2832
I1511623
aF3.533546325878594
aa(lp2833
I1511683
aF1.0
aa(lp2834
I1512836
aF2.88255033557047
aa(lp2835
I1513550
aF3.0253807106598987
aa(lp2836
I1514886
aF3.2660944206008584
aa(lp2837
I1515113
aF3.48
aa(lp2838
I1515355
aF3.8851239669421487
aa(lp2839
I1516350
aF3.069589422407794
aa(lp2840
I1516909
aF3.7794612794612794
aa(lp2841
I1516936
aF4.2411674347158215
aa(lp2842
I1517010
aF3.8185053380782916
aa(lp2843
I1517061
aF3.234806629834254
aa(lp2844
I1517471
aF3.3756432246998287
aa(lp2845
I1517519
aF3.113737075332349
aa(lp2846
I1517590
aF3.463878326996198
aa(lp2847
I1519073
aF3.3453865336658355
aa(lp2848
I1519378
aF3.356070087609512
aa(lp2849
I1519692
aF3.6697722567287783
aa(lp2850
I1520166
aF2.6328125
aa(lp2851
I1520710
aF3.039164490861619
aa(lp2852
I1521272
aF3.3434065934065935
aa(lp2853
I1521774
aF3.3284936479128855
aa(lp2854
I1521960
aF3.1661237785016287
aa(lp2855
I1523671
aF3.3125
aa(lp2856
I1523710
aF4.48051948051948
aa(lp2857
I1524964
aF2.9672131147540983
aa(lp2858
I1526365
aF3.5172413793103448
aa(lp2859
I1527527
aF3.432944606413994
aa(lp2860
I1527676
aF2.2469437652811735
aa(lp2861
I1528418
aF3.5332326283987916
aa(lp2862
I1528604
aF2.895910780669145
aa(lp2863
I1529376
aF3.8333333333333335
aa(lp2864
I1529449
aF2.5663189269746645
aa(lp2865
I1531029
aF2.2527624309392267
aa(lp2866
I1531342
aF3.9789915966386555
aa(lp2867
I1531344
aF3.849290780141844
aa(lp2868
I1532058
aF3.537142857142857
aa(lp2869
I1532220
aF3.6278260869565218
aa(lp2870
I1532336
aF2.5863392171910973
aa(lp2871
I1532399
aF3.6081277213352685
aa(lp2872
I1532433
aF3.121875
aa(lp2873
I1533313
aF3.5614973262032086
aa(lp2874
I1533807
aF2.8511904761904763
aa(lp2875
I1534085
aF3.46890756302521
aa(lp2876
I1534677
aF3.409461663947798
aa(lp2877
I1534723
aF4.012173913043478
aa(lp2878
I1536419
aF3.3213793103448275
aa(lp2879
I1536728
aF3.8461538461538463
aa(lp2880
I1538355
aF3.1867124856815576
aa(lp2881
I1539389
aF3.0777988614800758
aa(lp2882
I1539697
aF3.077854671280277
aa(lp2883
I1540380
aF3.864864864864865
aa(lp2884
I1540655
aF4.468354430379747
aa(lp2885
I1540779
aF2.8095238095238093
aa(lp2886
I1545694
aF3.4946236559139785
aa(lp2887
I1545709
aF3.3708920187793425
aa(lp2888
I1545940
aF3.403169014084507
aa(lp2889
I1546115
aF3.6508563899868247
aa(lp2890
I1546371
aF3.5372670807453415
aa(lp2891
I1546549
aF3.392405063291139
aa(lp2892
I1547747
aF3.7875399361022364
aa(lp2893
I1548363
aF2.5923694779116464
aa(lp2894
I1548770
aF4.091911764705882
aa(lp2895
I1549174
aF3.2025518341307815
aa(lp2896
I1549483
aF3.684640522875817
aa(lp2897
I1550207
aF2.2941176470588234
aa(lp2898
I1550359
aF3.1963788300835656
aa(lp2899
I1550718
aF3.786237188872621
aa(lp2900
I1551042
aF3.6602941176470587
aa(lp2901
I1551591
aF3.152753108348135
aa(lp2902
I1551751
aF3.780517879161529
aa(lp2903
I1551926
aF3.3493377483443707
aa(lp2904
I1551980
aF2.9964912280701754
aa(lp2905
I1552084
aF3.9072164948453607
aa(lp2906
I1552874
aF3.983361064891847
aa(lp2907
I1553047
aF3.06368330464716
aa(lp2908
I1553270
aF3.955116696588869
aa(lp2909
I1553532
aF3.0729001584786055
aa(lp2910
I1553659
aF3.925581395348837
aa(lp2911
I1553965
aF2.966887417218543
aa(lp2912
I1554241
aF3.9063545150501673
aa(lp2913
I1555081
aF3.647457627118644
aa(lp2914
I1555531
aF3.524193548387097
aa(lp2915
I1556617
aF3.1194762684124386
aa(lp2916
I1556692
aF2.5567144719687094
aa(lp2917
I1556831
aF2.0407843137254904
aa(lp2918
I1557557
aF3.1407516580692705
aa(lp2919
I1558286
aF2.76039603960396
aa(lp2920
I1558352
aF3.476808905380334
aa(lp2921
I1559022
aF3.2027027027027026
aa(lp2922
I1559083
aF3.15946137491141
aa(lp2923
I1559165
aF3.978902953586498
aa(lp2924
I1559797
aF3.7213333333333334
aa(lp2925
I1560283
aF3.4415094339622643
aa(lp2926
I1561134
aF3.5279232111692846
aa(lp2927
I1561960
aF1.817507418397626
aa(lp2928
I1561964
aF3.7684021543985637
aa(lp2929
I1562633
aF3.9465020576131686
aa(lp2930
I1562707
aF3.4612546125461257
aa(lp2931
I1563429
aF3.4958217270194987
aa(lp2932
I1563698
aF2.349256900212314
aa(lp2933
I1563935
aF1.40743198407432
aa(lp2934
I1564191
aF2.510666666666667
aa(lp2935
I1564649
aF3.940119760479042
aa(lp2936
I1564978
aF4.217320261437909
aa(lp2937
I1565082
aF2.8434622467771637
aa(lp2938
I1565175
aF3.587905935050392
aa(lp2939
I1565851
aF2.4302134646962235
aa(lp2940
I1567202
aF1.7479061976549413
aa(lp2941
I1567240
aF2.6079077429983526
aa(lp2942
I1567322
aF4.298245614035087
aa(lp2943
I1567783
aF3.3184257602862255
aa(lp2944
I1567792
aF4.043661971830986
aa(lp2945
I1567970
aF3.4857881136950906
aa(lp2946
I1569593
aF2.92693661971831
aa(lp2947
I1570077
aF3.817378497790869
aa(lp2948
I1570161
aF3.74869109947644
aa(lp2949
I1570292
aF4.155052264808362
aa(lp2950
I1570999
aF3.652014652014652
aa(lp2951
I1571299
aF3.449225473321859
aa(lp2952
I1571565
aF3.529182879377432
aa(lp2953
I1571988
aF3.7841079460269866
aa(lp2954
I1573228
aF2.533546325878594
aa(lp2955
I1574264
aF3.7468879668049793
aa(lp2956
I1574597
aF3.794915254237288
aa(lp2957
I1575462
aF3.705699481865285
aa(lp2958
I1575939
aF4.447955390334572
aa(lp2959
I1576028
aF2.784965034965035
aa(lp2960
I1576405
aF3.8475073313782993
aa(lp2961
I1577480
aF3.7985185185185184
aa(lp2962
I1578281
aF2.6517241379310343
aa(lp2963
I1578801
aF4.287117903930131
aa(lp2964
I1579340
aF4.887262079062958
aa(lp2965
I1579371
aF3.3975694444444446
aa(lp2966
I1579413
aF3.803951367781155
aa(lp2967
I1579906
aF3.3162393162393164
aa(lp2968
I1580032
aF3.573451327433628
aa(lp2969
I1580437
aF3.142857142857143
aa(lp2970
I1580673
aF3.545138888888889
aa(lp2971
I1580943
aF3.699310344827586
aa(lp2972
I1581139
aF2.8554006968641117
aa(lp2973
I1581343
aF3.0798192771084336
aa(lp2974
I1582412
aF2.604651162790698
aa(lp2975
I1582952
aF3.078804347826087
aa(lp2976
I1583129
aF3.9225908372827805
aa(lp2977
I1583424
aF4.025210084033613
aa(lp2978
I1583566
aF4.004392386530014
aa(lp2979
I1583631
aF3.6401630988786953
aa(lp2980
I1584985
aF4.2421383647798745
aa(lp2981
I1586221
aF4.037769784172662
aa(lp2982
I1586533
aF3.4210526315789473
aa(lp2983
I1588471
aF3.8621236133122028
aa(lp2984
I1590697
aF3.462962962962963
aa(lp2985
I1591103
aF3.440983606557377
aa(lp2986
I1592086
aF2.660994764397906
aa(lp2987
I1592339
aF2.4636150234741785
aa(lp2988
I1592816
aF2.9294294294294296
aa(lp2989
I1594764
aF2.9063291139240506
aa(lp2990
I1596469
aF2.851727982162765
aa(lp2991
I1597178
aF3.867132867132867
aa(lp2992
I1597736
aF2.8301282051282053
aa(lp2993
I1598488
aF3.397034596375618
aa(lp2994
I1599029
aF3.403481012658228
aa(lp2995
I1599231
aF2.6638655462184873
aa(lp2996
I1599243
aF3.2422802850356294
aa(lp2997
I1599850
aF3.3684913217623498
aa(lp2998
I1599855
aF3.202231520223152
aa(lp2999
I1600210
aF3.2019099590723057
aa(lp3000
I1600960
aF3.121160409556314
aa(lp3001
I1601857
aF3.8358208955223883
aa(lp3002
I1602153
aF3.6114352392065343
aa(lp3003
I1602339
aF3.7193251533742333
aa(lp3004
I1602924
aF3.1739130434782608
aa(lp3005
I1602952
aF2.9313232830820772
aa(lp3006
I1603022
aF3.8765778401122017
aa(lp3007
I1603364
aF3.289568345323741
aa(lp3008
I1604357
aF3.33456561922366
aa(lp3009
I1605122
aF3.240251572327044
aa(lp3010
I1605580
aF3.738444193912063
aa(lp3011
I1605715
aF3.477198697068404
aa(lp3012
I1606064
aF3.2643835616438355
aa(lp3013
I1606342
aF3.5209176788124155
aa(lp3014
I1606739
aF3.3453453453453452
aa(lp3015
I1606779
aF3.7747252747252746
aa(lp3016
I1607300
aF3.677248677248677
aa(lp3017
I1607747
aF3.5092307692307694
aa(lp3018
I1610234
aF2.6378132118451023
aa(lp3019
I1611056
aF2.6772009029345374
aa(lp3020
I1611417
aF3.141215106732348
aa(lp3021
I1611857
aF3.1214285714285714
aa(lp3022
I1612558
aF2.6970108695652173
aa(lp3023
I1612901
aF3.50174621653085
aa(lp3024
I1613540
aF3.3671679197994986
aa(lp3025
I1614424
aF2.9215686274509802
aa(lp3026
I1614939
aF2.8256227758007118
aa(lp3027
I1615548
aF3.1784287616511318
aa(lp3028
I1615850
aF3.3762057877813505
aa(lp3029
I1616135
aF3.5801104972375692
aa(lp3030
I1616437
aF4.078404401650619
aa(lp3031
I1616870
aF3.6787878787878787
aa(lp3032
I1617448
aF3.762541806020067
aa(lp3033
I1617675
aF3.2560777957860614
aa(lp3034
I1617685
aF3.645051194539249
aa(lp3035
I1617915
aF3.310948905109489
aa(lp3036
I1620201
aF3.105194805194805
aa(lp3037
I1620319
aF3.5065104166666665
aa(lp3038
I1620733
aF2.8649093904448106
aa(lp3039
I1620735
aF3.1865942028985508
aa(lp3040
I1621023
aF2.8776978417266186
aa(lp3041
I1621025
aF3.109230769230769
aa(lp3042
I1621089
aF2.991957104557641
aa(lp3043
I1622407
aF3.2676630434782608
aa(lp3044
I1622462
aF3.2308970099667773
aa(lp3045
I1624047
aF3.792294807370184
aa(lp3046
I1625122
aF2.93007769145394
aa(lp3047
I1626727
aF2.913621262458472
aa(lp3048
I1627955
aF2.1686851211072664
aa(lp3049
I1628484
aF3.165628891656289
aa(lp3050
I1629176
aF3.717536813922356
aa(lp3051
I1629301
aF3.806611570247934
aa(lp3052
I1629440
aF4.257320319432121
aa(lp3053
I1629801
aF3.4944933920704844
aa(lp3054
I1630194
aF3.368141592920354
aa(lp3055
I1630419
aF3.9785714285714286
aa(lp3056
I1630967
aF3.497645211930926
aa(lp3057
I1632290
aF3.703846153846154
aa(lp3058
I1632784
aF3.620426829268293
aa(lp3059
I1633009
aF3.63855421686747
aa(lp3060
I1633211
aF3.1453125
aa(lp3061
I1634668
aF3.119751166407465
aa(lp3062
I1635582
aF2.884934756820878
aa(lp3063
I1635708
aF4.016245487364621
aa(lp3064
I1637213
aF3.8509142053445853
aa(lp3065
I1637683
aF2.7780938833570414
aa(lp3066
I1637761
aF2.8739612188365653
aa(lp3067
I1639792
aF1.3006974941875484
aa(lp3068
I1640132
aF3.7927807486631018
aa(lp3069
I1640271
aF2.9968847352024923
aa(lp3070
I1640334
aF3.82046511627907
aa(lp3071
I1641072
aF3.1012658227848102
aa(lp3072
I1641213
aF3.5228346456692914
aa(lp3073
I1642678
aF3.642517814726841
aa(lp3074
I1643146
aF3.321258341277407
aa(lp3075
I1643961
aF3.508634222919937
aa(lp3076
I1644520
aF3.9913644214162347
aa(lp3077
I1644680
aF3.762172284644195
aa(lp3078
I1644686
aF2.8380414312617703
aa(lp3079
I1645377
aF3.4763406940063093
aa(lp3080
I1645486
aF3.161634103019538
aa(lp3081
I1645514
aF3.4210526315789473
aa(lp3082
I1645535
aF3.948529411764706
aa(lp3083
I1645904
aF3.3160865475070556
aa(lp3084
I1646777
aF2.9255898366606172
aa(lp3085
I1647674
aF3.224383916990921
aa(lp3086
I1648316
aF3.086355785837651
aa(lp3087
I1648423
aF3.308049535603715
aa(lp3088
I1648992
aF3.43205574912892
aa(lp3089
I1649068
aF4.092838196286472
aa(lp3090
I1649964
aF3.090909090909091
aa(lp3091
I1650301
aF1.9371980676328502
aa(lp3092
I1650580
aF3.5735900962861074
aa(lp3093
I1652623
aF2.479381443298969
aa(lp3094
I1653320
aF3.2864674868189807
aa(lp3095
I1653637
aF3.450134770889488
aa(lp3096
I1654627
aF3.124797406807131
aa(lp3097
I1654721
aF4.007656967840735
aa(lp3098
I1655656
aF2.5531587057010787
aa(lp3099
I1655778
aF3.957627118644068
aa(lp3100
I1656130
aF3.230769230769231
aa(lp3101
I1658101
aF3.7072538860103625
aa(lp3102
I1658172
aF4.356120826709062
aa(lp3103
I1658662
aF3.554467564259486
aa(lp3104
I1658790
aF3.1807838179519594
aa(lp3105
I1658953
aF3.006825938566553
aa(lp3106
I1659398
aF3.4844961240310077
aa(lp3107
I1659647
aF3.4121621621621623
aa(lp3108
I1660348
aF3.037306642402184
aa(lp3109
I1660384
aF3.9463548830811552
aa(lp3110
I1660783
aF3.2445255474452557
aa(lp3111
I1661344
aF4.048451151707704
aa(lp3112
I1662098
aF3.7225877192982457
aa(lp3113
I1662714
aF3.3400200601805414
aa(lp3114
I1662724
aF3.033333333333333
aa(lp3115
I1663216
aF2.672787979966611
aa(lp3116
I1663295
aF2.714535901926445
aa(lp3117
I1663467
aF3.5576923076923075
aa(lp3118
I1663694
aF3.0445859872611467
aa(lp3119
I1663717
aF2.715527950310559
aa(lp3120
I1663888
aF3.453125
aa(lp3121
I1664010
aF4.256905636276545
aa(lp3122
I1664712
aF3.9806138933764137
aa(lp3123
I1666057
aF3.278041074249605
aa(lp3124
I1666140
aF3.2830820770519265
aa(lp3125
I1666213
aF2.9492063492063494
aa(lp3126
I1667739
aF4.1004636785162285
aa(lp3127
I1668072
aF4.42530755711775
aa(lp3128
I1669116
aF3.8
aa(lp3129
I1669420
aF3.6719022687609075
aa(lp3130
I1669465
aF3.878688524590164
aa(lp3131
I1669517
aF2.882867132867133
aa(lp3132
I1670329
aF3.57841726618705
aa(lp3133
I1670875
aF3.7052767052767055
aa(lp3134
I1671223
aF3.4654088050314464
aa(lp3135
I1671330
aF3.3661740558292284
aa(lp3136
I1671947
aF3.1037974683544305
aa(lp3137
I1672386
aF3.5891181988742966
aa(lp3138
I1672832
aF3.1763392857142856
aa(lp3139
I1673185
aF2.85337972166998
aa(lp3140
I1674931
aF2.8288
aa(lp3141
I1675105
aF3.1009933774834435
aa(lp3142
I1675183
aF2.9145527369826434
aa(lp3143
I1675194
aF3.268208092485549
aa(lp3144
I1675280
aF3.7779605263157894
aa(lp3145
I1675619
aF3.7512520868113524
aa(lp3146
I1675680
aF2.9319526627218937
aa(lp3147
I1675966
aF3.5764705882352943
aa(lp3148
I1677588
aF2.6007194244604315
aa(lp3149
I1679741
aF3.976618705035971
aa(lp3150
I1681124
aF3.896810506566604
aa(lp3151
I1682851
aF2.9139414802065406
aa(lp3152
I1683198
aF3.59552495697074
aa(lp3153
I1684232
aF3.1958174904942966
aa(lp3154
I1684328
aF3.432975871313673
aa(lp3155
I1684416
aF3.2701092353525323
aa(lp3156
I1684516
aF3.717557251908397
aa(lp3157
I1685089
aF3.552
aa(lp3158
I1685548
aF2.5949579831932774
aa(lp3159
I1686134
aF3.3238636363636362
aa(lp3160
I1686270
aF3.339622641509434
aa(lp3161
I1686713
aF3.304109589041096
aa(lp3162
I1687095
aF3.6560283687943262
aa(lp3163
I1689683
aF3.2732342007434942
aa(lp3164
I1690559
aF3.2132867132867133
aa(lp3165
I1691090
aF3.213270142180095
aa(lp3166
I1691893
aF3.12
aa(lp3167
I1692069
aF3.6898496240601504
aa(lp3168
I1692249
aF3.6483126110124333
aa(lp3169
I1692302
aF3.8350125944584383
aa(lp3170
I1693002
aF4.20303867403315
aa(lp3171
I1693122
aF2.6269982238010656
aa(lp3172
I1693814
aF3.119047619047619
aa(lp3173
I1694750
aF2.9244094488188974
aa(lp3174
I1696308
aF3.6827830188679247
aa(lp3175
I1697790
aF3.288235294117647
aa(lp3176
I1698802
aF3.8853615520282188
aa(lp3177
I1698900
aF4.101604278074866
aa(lp3178
I1701322
aF3.9452296819787986
aa(lp3179
I1701632
aF3.404255319148936
aa(lp3180
I1702270
aF3.709621993127148
aa(lp3181
I1703544
aF3.0608856088560885
aa(lp3182
I1703879
aF3.3861635220125788
aa(lp3183
I1704130
aF3.667262969588551
aa(lp3184
I1704223
aF2.6500453309156846
aa(lp3185
I1704311
aF3.291725105189341
aa(lp3186
I1704416
aF3.120663650075415
aa(lp3187
I1705134
aF2.809734513274336
aa(lp3188
I1706645
aF2.7142857142857144
aa(lp3189
I1706866
aF3.31369150779896
aa(lp3190
I1706873
aF3.659327925840093
aa(lp3191
I1707198
aF2.963444857496902
aa(lp3192
I1707646
aF3.9737762237762237
aa(lp3193
I1708281
aF3.4343707713125844
aa(lp3194
I1709921
aF3.134185303514377
aa(lp3195
I1710306
aF3.06605222734255
aa(lp3196
I1710643
aF3.197478991596639
aa(lp3197
I1710658
aF3.0927601809954752
aa(lp3198
I1712930
aF3.5776614310645725
aa(lp3199
I1714116
aF2.9277456647398843
aa(lp3200
I1714672
aF3.1303763440860215
aa(lp3201
I1714874
aF3.4424778761061945
aa(lp3202
I1715879
aF3.622418879056047
aa(lp3203
I1716427
aF3.1831683168316833
aa(lp3204
I1716677
aF3.5094991364421415
aa(lp3205
I1716910
aF3.8277027027027026
aa(lp3206
I1717060
aF3.6695526695526697
aa(lp3207
I1717184
aF3.125886524822695
aa(lp3208
I1717534
aF3.1978984238178634
aa(lp3209
I1717675
aF3.6129597197898424
aa(lp3210
I1717979
aF2.699501246882793
aa(lp3211
I1718526
aF3.225
aa(lp3212
I1718527
aF2.962121212121212
aa(lp3213
I1719554
aF3.7147540983606557
aa(lp3214
I1719610
aF3.4334470989761092
aa(lp3215
I1719780
aF2.867145421903052
aa(lp3216
I1719990
aF2.5647590361445785
aa(lp3217
I1720041
aF3.7777777777777777
aa(lp3218
I1720424
aF3.2540453074433655
aa(lp3219
I1720861
aF3.514314928425358
aa(lp3220
I1721623
aF2.5936454849498327
aa(lp3221
I1722054
aF4.543256997455471
aa(lp3222
I1722187
aF3.8705701078582435
aa(lp3223
I1722514
aF2.9596638655462186
aa(lp3224
I1723621
aF3.381679389312977
aa(lp3225
I1724806
aF3.0257104194857916
aa(lp3226
I1724821
aF4.081218274111675
aa(lp3227
I1725003
aF3.086896551724138
aa(lp3228
I1725009
aF3.022875816993464
aa(lp3229
I1725226
aF4.246130030959752
aa(lp3230
I1725515
aF3.369150779896014
aa(lp3231
I1726438
aF3.269585253456221
aa(lp3232
I1727232
aF3.2929184549356223
aa(lp3233
I1727342
aF3.778393351800554
aa(lp3234
I1727531
aF3.0736842105263156
aa(lp3235
I1728094
aF3.398360655737705
aa(lp3236
I1728944
aF2.95970695970696
aa(lp3237
I1729518
aF4.720338983050848
aa(lp3238
I1730369
aF3.0878378378378377
aa(lp3239
I1730537
aF3.765625
aa(lp3240
I1730699
aF3.3716216216216215
aa(lp3241
I1731009
aF2.83859649122807
aa(lp3242
I1731106
aF2.715890850722311
aa(lp3243
I1731658
aF3.2755775577557755
aa(lp3244
I1732840
aF3.3279411764705884
aa(lp3245
I1732841
aF3.663768115942029
aa(lp3246
I1733203
aF3.203342618384401
aa(lp3247
I1733406
aF2.9988358556461003
aa(lp3248
I1734270
aF2.906940063091483
aa(lp3249
I1737149
aF3.8154761904761907
aa(lp3250
I1737529
aF3.296743063932449
aa(lp3251
I1737862
aF2.9529243937232525
aa(lp3252
I1737974
aF3.6126543209876543
aa(lp3253
I1738198
aF3.3424
aa(lp3254
I1739082
aF2.48875
aa(lp3255
I1739230
aF3.2781954887218046
aa(lp3256
I1739296
aF3.5901015228426396
aa(lp3257
I1739440
aF3.4823848238482387
aa(lp3258
I1739615
aF2.6625386996904026
aa(lp3259
I1739691
aF3.8178438661710037
aa(lp3260
I1740380
aF4.128623188405797
aa(lp3261
I1740987
aF4.647226173541963
aa(lp3262
I1741099
aF4.465753424657534
aa(lp3263
I1741303
aF3.0106837606837606
aa(lp3264
I1742103
aF3.7972136222910216
aa(lp3265
I1742122
aF3.6940966010733454
aa(lp3266
I1742759
aF3.0781954887218044
aa(lp3267
I1743381
aF3.3004926108374386
aa(lp3268
I1743756
aF3.7650602409638556
aa(lp3269
I1744594
aF3.6677852348993287
aa(lp3270
I1744889
aF2.427772600186393
aa(lp3271
I1745107
aF3.616696588868941
aa(lp3272
I1745577
aF5.0
aa(lp3273
I1746056
aF3.5500725689404935
aa(lp3274
I1746378
aF3.8015873015873014
aa(lp3275
I1747154
aF3.8949096880131364
aa(lp3276
I1747640
aF4.222596964586846
aa(lp3277
I1749238
aF3.390492359932088
aa(lp3278
I1749656
aF3.403179190751445
aa(lp3279
I1749706
aF3.139705882352941
aa(lp3280
I1750386
aF3.3001605136436596
aa(lp3281
I1750396
aF3.4611570247933883
aa(lp3282
I1750785
aF3.242283950617284
aa(lp3283
I1751084
aF3.978723404255319
aa(lp3284
I1751371
aF3.1940789473684212
aa(lp3285
I1752638
aF3.3124183006535945
aa(lp3286
I1752856
aF3.6206349206349207
aa(lp3287
I1753194
aF2.751668891855808
aa(lp3288
I1753201
aF3.3221153846153846
aa(lp3289
I1754537
aF3.2731554160125587
aa(lp3290
I1755092
aF3.9048414023372287
aa(lp3291
I1755138
aF3.0016420361247946
aa(lp3292
I1755534
aF3.6189655172413793
aa(lp3293
I1755612
aF3.7826666666666666
aa(lp3294
I1755852
aF3.661641541038526
aa(lp3295
I1756796
aF3.2663139329805997
aa(lp3296
I1757328
aF3.360858794384806
aa(lp3297
I1757577
aF2.5118397085610202
aa(lp3298
I1758002
aF3.097442143727162
aa(lp3299
I1759886
aF3.4086021505376345
aa(lp3300
I1760487
aF3.2540834845735027
aa(lp3301
I1760492
aF3.3447251114413077
aa(lp3302
I1760730
aF3.4491682070240297
aa(lp3303
I1762633
aF3.2788632326820606
aa(lp3304
I1762695
aF3.5937794533459
aa(lp3305
I1763064
aF2.637223974763407
aa(lp3306
I1763979
aF3.2107843137254903
aa(lp3307
I1764923
aF3.3661270236612704
aa(lp3308
I1765734
aF3.3483309143686504
aa(lp3309
I1766397
aF3.791150442477876
aa(lp3310
I1766524
aF3.82382762991128
aa(lp3311
I1769206
aF3.886243386243386
aa(lp3312
I1769330
aF4.015358361774744
aa(lp3313
I1769638
aF3.232727272727273
aa(lp3314
I1769920
aF4.732962447844228
aa(lp3315
I1769985
aF3.564805057955743
aa(lp3316
I1769993
aF3.5285714285714285
aa(lp3317
I1770828
aF2.0533807829181496
aa(lp3318
I1771053
aF3.5092989985693848
aa(lp3319
I1771108
aF3.1549053356282273
aa(lp3320
I1771252
aF2.898125509372453
aa(lp3321
I1771365
aF3.7421875
aa(lp3322
I1771516
aF3.178688524590164
aa(lp3323
I1771587
aF3.4602698650674664
aa(lp3324
I1772215
aF3.0984375
aa(lp3325
I1772362
aF3.3710691823899372
aa(lp3326
I1772901
aF3.2879330943847074
aa(lp3327
I1772954
aF3.124792013311148
aa(lp3328
I1772964
aF3.6226415094339623
aa(lp3329
I1774181
aF2.8365758754863815
aa(lp3330
I1774409
aF3.227118644067797
aa(lp3331
I1774452
aF3.4297945205479454
aa(lp3332
I1774516
aF3.4805194805194803
aa(lp3333
I1774623
aF3.4957264957264957
aa(lp3334
I1775437
aF4.520249221183801
aa(lp3335
I1776654
aF3.248322147651007
aa(lp3336
I1776870
aF2.178306092124814
aa(lp3337
I1777406
aF2.1917098445595853
aa(lp3338
I1777474
aF3.5875
aa(lp3339
I1777614
aF3.089098532494759
aa(lp3340
I1778011
aF3.8703403565640193
aa(lp3341
I1778714
aF3.6724890829694323
aa(lp3342
I1778955
aF3.070855614973262
aa(lp3343
I1781198
aF3.7944377267230953
aa(lp3344
I1782185
aF3.1342952275249725
aa(lp3345
I1782465
aF2.92443729903537
aa(lp3346
I1783225
aF3.6105882352941174
aa(lp3347
I1784150
aF3.226258432797094
aa(lp3348
I1784723
aF2.9330628803245435
aa(lp3349
I1785209
aF3.4746772591857003
aa(lp3350
I1787323
aF3.7487046632124352
aa(lp3351
I1788009
aF4.256198347107438
aa(lp3352
I1788180
aF2.3866906474820144
aa(lp3353
I1788346
aF1.5341488277268094
aa(lp3354
I1788733
aF4.1678832116788325
aa(lp3355
I1789382
aF3.661654135338346
aa(lp3356
I1789747
aF3.318936877076412
aa(lp3357
I1790158
aF3.873308733087331
aa(lp3358
I1790903
aF3.40032154340836
aa(lp3359
I1791124
aF3.1982142857142857
aa(lp3360
I1792064
aF4.022222222222222
aa(lp3361
I1792741
aF2.6369890732496963
aa(lp3362
I1793717
aF3.4878048780487805
aa(lp3363
I1794722
aF3.6558823529411764
aa(lp3364
I1794738
aF4.23785594639866
aa(lp3365
I1795018
aF3.860869565217391
aa(lp3366
I1795694
aF2.7298937784522
aa(lp3367
I1796886
aF3.167842031029619
aa(lp3368
I1797483
aF3.532330827067669
aa(lp3369
I1797525
aF2.8098958333333335
aa(lp3370
I1798758
aF3.1756978653530377
aa(lp3371
I1799090
aF3.4074074074074074
aa(lp3372
I1800320
aF3.1626168224299067
aa(lp3373
I1800459
aF3.9123414071510956
aa(lp3374
I1800701
aF3.4564564564564564
aa(lp3375
I1801528
aF2.5217932752179326
aa(lp3376
I1802059
aF3.335832083958021
aa(lp3377
I1802414
aF3.1227810650887573
aa(lp3378
I1803243
aF3.3333333333333335
aa(lp3379
I1804819
aF3.484251968503937
aa(lp3380
I1806515
aF2.9777486910994764
aa(lp3381
I1806731
aF3.198887343532684
aa(lp3382
I1806991
aF4.091445427728614
aa(lp3383
I1807166
aF3.51575456053068
aa(lp3384
I1807245
aF3.2051756007393717
aa(lp3385
I1808201
aF3.3489583333333335
aa(lp3386
I1808930
aF2.508223684210526
aa(lp3387
I1809161
aF3.586021505376344
aa(lp3388
I1809784
aF2.902877697841727
aa(lp3389
I1810074
aF3.6342756183745584
aa(lp3390
I1811259
aF3.58974358974359
aa(lp3391
I1811832
aF3.4834355828220858
aa(lp3392
I1812378
aF3.352046783625731
aa(lp3393
I1813076
aF3.0476923076923077
aa(lp3394
I1813197
aF3.8697916666666665
aa(lp3395
I1813272
aF3.731958762886598
aa(lp3396
I1814098
aF3.311074918566775
aa(lp3397
I1814136
aF3.3933649289099526
aa(lp3398
I1814516
aF3.863777089783282
aa(lp3399
I1814991
aF3.0018214936247722
aa(lp3400
I1815129
aF3.7277840269966256
aa(lp3401
I1815614
aF2.6823529411764704
aa(lp3402
I1816884
aF3.427695004382121
aa(lp3403
I1817718
aF3.7629032258064514
aa(lp3404
I1818059
aF3.5604498594189318
aa(lp3405
I1819462
aF2.1078184110970994
aa(lp3406
I1819758
aF3.674785100286533
aa(lp3407
I1820564
aF3.971274685816876
aa(lp3408
I1820593
aF3.497504159733777
aa(lp3409
I1820824
aF3.464
aa(lp3410
I1820960
aF3.073015873015873
aa(lp3411
I1821474
aF2.7852422907488985
aa(lp3412
I1822560
aF3.279863481228669
aa(lp3413
I1823065
aF4.071117561683599
aa(lp3414
I1823259
aF3.4993065187239942
aa(lp3415
I1823645
aF3.500530222693531
aa(lp3416
I1823920
aF3.446280991735537
aa(lp3417
I1824009
aF3.3811475409836067
aa(lp3418
I1824389
aF3.6423135464231353
aa(lp3419
I1825647
aF2.786279683377309
aa(lp3420
I1827071
aF3.052969502407705
aa(lp3421
I1827859
aF2.9573991031390134
aa(lp3422
I1828179
aF3.0483870967741935
aa(lp3423
I1828803
aF3.051103368176539
aa(lp3424
I1829594
aF3.4213938411669367
aa(lp3425
I1829617
aF3.6888111888111887
aa(lp3426
I1829748
aF3.0393700787401574
aa(lp3427
I1830000
aF3.7818930041152266
aa(lp3428
I1830265
aF3.411392405063291
aa(lp3429
I1830690
aF4.121137206427688
aa(lp3430
I1830763
aF2.931972789115646
aa(lp3431
I1831361
aF3.462109955423477
aa(lp3432
I1831550
aF4.328990228013029
aa(lp3433
I1832023
aF2.9734375
aa(lp3434
I1832073
aF3.4878048780487805
aa(lp3435
I1832243
aF3.4992
aa(lp3436
I1833866
aF2.802907915993538
aa(lp3437
I1834123
aF3.8069306930693068
aa(lp3438
I1834394
aF3.694200351493849
aa(lp3439
I1835080
aF3.5949612403100777
aa(lp3440
I1835142
aF2.854961832061069
aa(lp3441
I1835359
aF3.3464566929133857
aa(lp3442
I1835511
aF3.248348745046235
aa(lp3443
I1836545
aF3.4471698113207547
aa(lp3444
I1837202
aF3.876949740034662
aa(lp3445
I1838390
aF1.779585798816568
aa(lp3446
I1838480
aF4.012195121951219
aa(lp3447
I1838526
aF3.337962962962963
aa(lp3448
I1839500
aF2.9533132530120483
aa(lp3449
I1840584
aF3.049698795180723
aa(lp3450
I1840900
aF3.3073322932917315
aa(lp3451
I1841056
aF3.1619047619047618
aa(lp3452
I1841531
aF2.672941176470588
aa(lp3453
I1842201
aF3.6849507735583686
aa(lp3454
I1843168
aF3.0234234234234236
aa(lp3455
I1844442
aF4.014012738853503
aa(lp3456
I1844813
aF4.415584415584416
aa(lp3457
I1845415
aF3.2962962962962963
aa(lp3458
I1847522
aF3.3843416370106763
aa(lp3459
I1847613
aF3.469767441860465
aa(lp3460
I1848170
aF4.148897058823529
aa(lp3461
I1848593
aF3.5553719008264464
aa(lp3462
I1848868
aF3.3076923076923075
aa(lp3463
I1848938
aF3.849615806805708
aa(lp3464
I1849541
aF3.4058679706601467
aa(lp3465
I1849620
aF3.706460674157303
aa(lp3466
I1850353
aF3.271472392638037
aa(lp3467
I1850680
aF1.6386333771353483
aa(lp3468
I1851346
aF3.1515151515151514
aa(lp3469
I1851429
aF3.6367521367521367
aa(lp3470
I1851867
aF3.6053882725832014
aa(lp3471
I1852040
aF2.088124054462935
aa(lp3472
I1852784
aF2.821256038647343
aa(lp3473
I1854193
aF3.066772655007949
aa(lp3474
I1854658
aF3.9518779342723005
aa(lp3475
I1854660
aF2.2609351432880844
aa(lp3476
I1855317
aF3.847902097902098
aa(lp3477
I1855394
aF3.734848484848485
aa(lp3478
I1855590
aF3.9210526315789473
aa(lp3479
I1857889
aF2.6893491124260356
aa(lp3480
I1858243
aF3.404040404040404
aa(lp3481
I1859573
aF2.875356803044719
aa(lp3482
I1860025
aF3.18978102189781
aa(lp3483
I1860298
aF3.4241877256317688
aa(lp3484
I1860332
aF3.4461152882205512
aa(lp3485
I1860339
aF3.749532710280374
aa(lp3486
I1860673
aF4.068115942028985
aa(lp3487
I1861500
aF2.9052478134110786
aa(lp3488
I1862272
aF3.111940298507463
aa(lp3489
I1862352
aF4.087037037037037
aa(lp3490
I1862392
aF3.392914653784219
aa(lp3491
I1862911
aF2.9495472186287195
aa(lp3492
I1863477
aF3.858806404657933
aa(lp3493
I1863499
aF3.7524271844660193
aa(lp3494
I1863899
aF2.9616087751371114
aa(lp3495
I1865100
aF3.7657232704402515
aa(lp3496
I1865249
aF2.7383177570093458
aa(lp3497
I1865329
aF3.7267657992565058
aa(lp3498
I1865846
aF3.376470588235294
aa(lp3499
I1866323
aF2.3974175035868006
aa(lp3500
I1867238
aF2.645230439442658
aa(lp3501
I1867416
aF3.038781163434903
aa(lp3502
I1868998
aF3.6153846153846154
aa(lp3503
I1869907
aF3.9805970149253733
aa(lp3504
I1870555
aF3.5945945945945947
aa(lp3505
I1871161
aF2.9689922480620154
aa(lp3506
I1872926
aF3.016304347826087
aa(lp3507
I1872933
aF2.9568221070811744
aa(lp3508
I1872980
aF3.2684563758389262
aa(lp3509
I1873315
aF3.78125
aa(lp3510
I1874239
aF4.098765432098766
aa(lp3511
I1875008
aF2.8763505402160865
aa(lp3512
I1875533
aF3.701201201201201
aa(lp3513
I1875549
aF3.2285012285012287
aa(lp3514
I1876520
aF1.4188790560471976
aa(lp3515
I1876574
aF4.104895104895105
aa(lp3516
I1877143
aF3.1509715994020926
aa(lp3517
I1877483
aF3.3286788399570355
aa(lp3518
I1877590
aF4.255284552845528
aa(lp3519
I1877868
aF3.1272141706924317
aa(lp3520
I1877958
aF2.61525974025974
aa(lp3521
I1878548
aF3.6244477172312224
aa(lp3522
I1878780
aF3.015873015873016
aa(lp3523
I1878798
aF2.439243027888446
aa(lp3524
I1879665
aF3.2141863699582753
aa(lp3525
I1880009
aF3.612403100775194
aa(lp3526
I1880039
aF3.141860465116279
aa(lp3527
I1880766
aF3.269230769230769
aa(lp3528
I1880844
aF3.424511545293073
aa(lp3529
I1880925
aF3.498245614035088
aa(lp3530
I1881328
aF2.782321899736148
aa(lp3531
I1882180
aF3.5577981651376147
aa(lp3532
I1882992
aF3.0987202925045705
aa(lp3533
I1883721
aF2.6091772151898733
aa(lp3534
I1884816
aF3.1204437400950873
aa(lp3535
I1885042
aF3.5539682539682538
aa(lp3536
I1885459
aF3.9738805970149254
aa(lp3537
I1885932
aF3.8560747663551402
aa(lp3538
I1886585
aF3.1035322777101095
aa(lp3539
I1887657
aF3.15929203539823
aa(lp3540
I1887749
aF2.754816112084063
aa(lp3541
I1888060
aF3.0074074074074075
aa(lp3542
I1889371
aF3.9499217527386543
aa(lp3543
I1890622
aF3.4538087520259317
aa(lp3544
I1890809
aF3.646604938271605
aa(lp3545
I1890844
aF3.1634078212290504
aa(lp3546
I1891149
aF3.083629893238434
aa(lp3547
I1891779
aF3.1010452961672472
aa(lp3548
I1892097
aF4.654237288135593
aa(lp3549
I1893120
aF3.6053511705685617
aa(lp3550
I1894043
aF3.992857142857143
aa(lp3551
I1894544
aF3.6127717391304346
aa(lp3552
I1895929
aF3.2450090744101634
aa(lp3553
I1896561
aF3.601410934744268
aa(lp3554
I1897386
aF3.159935379644588
aa(lp3555
I1898310
aF3.212481426448737
aa(lp3556
I1898907
aF3.6941580756013748
aa(lp3557
I1899913
aF3.6817640047675804
aa(lp3558
I1900424
aF3.801302931596091
aa(lp3559
I1900445
aF3.2897350993377485
aa(lp3560
I1900750
aF4.046125461254612
aa(lp3561
I1900854
aF4.675840978593272
aa(lp3562
I1901876
aF3.0188953488372094
aa(lp3563
I1902140
aF4.004225352112676
aa(lp3564
I1902417
aF3.924812030075188
aa(lp3565
I1902573
aF3.608344549125168
aa(lp3566
I1902609
aF2.84375
aa(lp3567
I1902838
aF2.2884160756501184
aa(lp3568
I1903175
aF2.767284991568297
aa(lp3569
I1903324
aF1.753641545281824
aa(lp3570
I1904865
aF3.4134078212290504
aa(lp3571
I1905498
aF3.1871750433275565
aa(lp3572
I1905883
aF3.429872495446266
aa(lp3573
I1906026
aF3.6795366795366795
aa(lp3574
I1906611
aF3.705112960760999
aa(lp3575
I1906860
aF3.2149643705463182
aa(lp3576
I1907373
aF3.7338582677165353
aa(lp3577
I1907667
aF3.5325638911788952
aa(lp3578
I1907843
aF3.4153005464480874
aa(lp3579
I1908051
aF3.4399375975039
aa(lp3580
I1908103
aF2.9181669394435352
aa(lp3581
I1908523
aF3.3778162911611784
aa(lp3582
I1909121
aF3.3016759776536313
aa(lp3583
I1910320
aF2.32
aa(lp3584
I1911845
aF3.6152832674571806
aa(lp3585
I1912002
aF3.5033557046979866
aa(lp3586
I1912542
aF1.6821106821106822
aa(lp3587
I1913241
aF3.1625207296849087
aa(lp3588
I1913414
aF4.155890168290522
aa(lp3589
I1914525
aF3.4309523809523808
aa(lp3590
I1914553
aF4.510989010989011
aa(lp3591
I1915014
aF3.5990922844175492
aa(lp3592
I1915183
aF3.944866920152091
aa(lp3593
I1916224
aF2.7566539923954374
aa(lp3594
I1916244
aF3.0362694300518136
aa(lp3595
I1916555
aF4.1404682274247495
aa(lp3596
I1917470
aF3.1240694789081886
aa(lp3597
I1917540
aF3.053295932678822
aa(lp3598
I1918704
aF3.859399684044234
aa(lp3599
I1918750
aF3.396039603960396
aa(lp3600
I1918987
aF3.565749235474006
aa(lp3601
I1919269
aF3.127725856697819
aa(lp3602
I1919770
aF3.2393700787401576
aa(lp3603
I1920565
aF3.091666666666667
aa(lp3604
I1921815
aF3.1772388059701493
aa(lp3605
I1922072
aF2.699236641221374
aa(lp3606
I1922670
aF3.3566433566433567
aa(lp3607
I1922925
aF3.09478672985782
aa(lp3608
I1923216
aF4.082666666666666
aa(lp3609
I1923886
aF2.86013986013986
aa(lp3610
I1925397
aF3.536652835408022
aa(lp3611
I1925832
aF3.3191094619666046
aa(lp3612
I1925969
aF3.886914378029079
aa(lp3613
I1926651
aF2.9715242881072026
aa(lp3614
I1927110
aF3.2665505226480835
aa(lp3615
I1927580
aF2.9248803827751195
aa(lp3616
I1927703
aF2.998657718120805
aa(lp3617
I1928290
aF3.0761061946902655
aa(lp3618
I1928445
aF3.194871794871795
aa(lp3619
I1928597
aF3.2395672333848533
aa(lp3620
I1929487
aF3.5076923076923077
aa(lp3621
I1931026
aF2.978638184245661
aa(lp3622
I1932377
aF2.941527446300716
aa(lp3623
I1932594
aF2.2769580022701477
aa(lp3624
I1932785
aF3.3805855161787366
aa(lp3625
I1933317
aF3.8435498627630373
aa(lp3626
I1933447
aF3.335570469798658
aa(lp3627
I1934002
aF2.7136894824707847
aa(lp3628
I1934293
aF3.1982758620689653
aa(lp3629
I1934347
aF3.072824156305506
aa(lp3630
I1935323
aF3.9571183533447685
aa(lp3631
I1935388
aF2.4426877470355732
aa(lp3632
I1935592
aF4.380848748639826
aa(lp3633
I1935793
aF2.396205357142857
aa(lp3634
I1935981
aF3.05446293494705
aa(lp3635
I1936110
aF3.064432989690722
aa(lp3636
I1936617
aF3.033707865168539
aa(lp3637
I1937187
aF3.2875457875457874
aa(lp3638
I1937280
aF3.1737649063032367
aa(lp3639
I1937532
aF3.1658206429780034
aa(lp3640
I1937631
aF3.682108626198083
aa(lp3641
I1939029
aF3.7372262773722627
aa(lp3642
I1939221
aF3.8069620253164556
aa(lp3643
I1939431
aF3.7962747380675204
aa(lp3644
I1939988
aF3.0115702479338844
aa(lp3645
I1940143
aF3.664335664335664
aa(lp3646
I1941703
aF3.3333333333333335
aa(lp3647
I1941862
aF3.500695410292072
aa(lp3648
I1942005
aF3.505357142857143
aa(lp3649
I1942723
aF3.5149156939040207
aa(lp3650
I1943596
aF3.9424
aa(lp3651
I1943605
aF3.692821368948247
aa(lp3652
I1944765
aF4.3399014778325125
aa(lp3653
I1945567
aF2.8822463768115942
aa(lp3654
I1945809
aF2.68755676657584
aa(lp3655
I1945838
aF3.319422150882825
aa(lp3656
I1949871
aF2.8901785714285713
aa(lp3657
I1951144
aF2.5755053507728896
aa(lp3658
I1951741
aF2.5888252148997135
aa(lp3659
I1952500
aF3.098503740648379
aa(lp3660
I1952860
aF4.598676957001103
aa(lp3661
I1953981
aF2.9139280125195617
aa(lp3662
I1954032
aF3.379188712522046
aa(lp3663
I1955660
aF3.2240963855421687
aa(lp3664
I1955706
aF3.4040219378427787
aa(lp3665
I1957786
aF3.708416833667335
aa(lp3666
I1961161
aF3.44336569579288
aa(lp3667
I1961619
aF3.499229583975347
aa(lp3668
I1961675
aF3.0241157556270095
aa(lp3669
I1961753
aF3.5242424242424244
aa(lp3670
I1961980
aF3.0646853146853146
aa(lp3671
I1964514
aF3.8488372093023258
aa(lp3672
I1964597
aF3.932917316692668
aa(lp3673
I1965634
aF3.125200642054575
aa(lp3674
I1965893
aF3.660746003552398
aa(lp3675
I1966687
aF3.445619335347432
aa(lp3676
I1967891
aF3.382300884955752
aa(lp3677
I1968862
aF3.7061946902654865
aa(lp3678
I1969285
aF3.7181942544459643
aa(lp3679
I1970337
aF3.6267496111975115
aa(lp3680
I1970583
aF3.637781629116118
aa(lp3681
I1970653
aF3.4274447949526814
aa(lp3682
I1972040
aF3.8419753086419752
aa(lp3683
I1972112
aF4.138613861386139
aa(lp3684
I1972929
aF3.7920133111480867
aa(lp3685
I1973114
aF2.549019607843137
aa(lp3686
I1973244
aF3.544747081712062
aa(lp3687
I1973503
aF3.4715568862275448
aa(lp3688
I1973951
aF3.41635687732342
aa(lp3689
I1977128
aF3.418867924528302
aa(lp3690
I1977209
aF3.4226361031518624
aa(lp3691
I1977612
aF3.638820638820639
aa(lp3692
I1977824
aF4.049689440993789
aa(lp3693
I1977959
aF3.235474006116208
aa(lp3694
I1978089
aF3.469291338582677
aa(lp3695
I1978543
aF3.181981981981982
aa(lp3696
I1979083
aF2.954732510288066
aa(lp3697
I1979787
aF3.02724358974359
aa(lp3698
I1979820
aF2.940566037735849
aa(lp3699
I1980593
aF3.1804043545878695
aa(lp3700
I1980663
aF3.4188948306595366
aa(lp3701
I1981464
aF3.475862068965517
aa(lp3702
I1981621
aF3.289290681502086
aa(lp3703
I1981733
aF3.1453287197231834
aa(lp3704
I1982465
aF2.8724409448818897
aa(lp3705
I1983493
aF2.7786666666666666
aa(lp3706
I1984086
aF3.74852652259332
aa(lp3707
I1984315
aF3.174061433447099
aa(lp3708
I1984978
aF2.8825665859564165
aa(lp3709
I1986034
aF3.4241461477362987
aa(lp3710
I1986816
aF4.144927536231884
aa(lp3711
I1986937
aF3.04149377593361
aa(lp3712
I1988192
aF2.8620342396777443
aa(lp3713
I1988375
aF3.1823444283646887
aa(lp3714
I1988633
aF3.0772151898734177
aa(lp3715
I1988735
aF2.7456279809220985
aa(lp3716
I1990316
aF3.0684713375796178
aa(lp3717
I1990523
aF3.3771812080536914
aa(lp3718
I1990901
aF3.750439367311072
aa(lp3719
I1992205
aF3.824418604651163
aa(lp3720
I1992636
aF3.4545454545454546
aa(lp3721
I1993420
aF3.0470383275261326
aa(lp3722
I1993568
aF3.1405405405405404
aa(lp3723
I1993625
aF3.1848591549295775
aa(lp3724
I1993796
aF3.55609756097561
aa(lp3725
I1995052
aF3.8870292887029287
aa(lp3726
I1995099
aF3.4227086183310536
aa(lp3727
I1995214
aF3.2607944732297063
aa(lp3728
I1995860
aF3.0598214285714285
aa(lp3729
I1995910
aF2.8856152512998268
aa(lp3730
I1995942
aF3.349736379613357
aa(lp3731
I1996154
aF3.5238853503184715
aa(lp3732
I1996893
aF3.8756567425569175
aa(lp3733
I1997020
aF2.760942760942761
aa(lp3734
I1997103
aF2.963302752293578
aa(lp3735
I1998055
aF3.116387337057728
aa(lp3736
I1998128
aF3.403409090909091
aa(lp3737
I1999176
aF3.5069252077562325
aa(lp3738
I1999678
aF3.757085020242915
aa(lp3739
I2000237
aF4.093788063337393
aa(lp3740
I2000256
aF3.5519323671497585
aa(lp3741
I2001296
aF3.045918367346939
aa(lp3742
I2001326
aF2.9028960817717206
aa(lp3743
I2002123
aF3.178694158075601
aa(lp3744
I2002196
aF3.529595015576324
aa(lp3745
I2002671
aF3.039097744360902
aa(lp3746
I2003550
aF3.0840480274442537
aa(lp3747
I2004175
aF3.0333919156414764
aa(lp3748
I2004524
aF3.1819464033850493
aa(lp3749
I2005241
aF3.5220061412487205
aa(lp3750
I2006360
aF3.713821138211382
aa(lp3751
I2006505
aF3.2962962962962963
aa(lp3752
I2008700
aF4.0575035063113605
aa(lp3753
I2008854
aF3.4531772575250836
aa(lp3754
I2010849
aF4.224080267558528
aa(lp3755
I2011043
aF3.5761689291101058
aa(lp3756
I2011258
aF3.9390243902439024
aa(lp3757
I2012052
aF3.5899653979238755
aa(lp3758
I2012563
aF4.223593964334705
aa(lp3759
I2012675
aF3.490228013029316
aa(lp3760
I2012897
aF3.9498956158663883
aa(lp3761
I2013504
aF3.7142857142857144
aa(lp3762
I2014204
aF3.944
aa(lp3763
I2015182
aF3.506527415143603
aa(lp3764
I2017088
aF3.2544757033248084
aa(lp3765
I2017112
aF3.1868613138686133
aa(lp3766
I2018894
aF3.944991789819376
aa(lp3767
I2019240
aF3.2218934911242605
aa(lp3768
I2020252
aF3.204198473282443
aa(lp3769
I2021377
aF3.352735739231665
aa(lp3770
I2021943
aF3.3818646232439336
aa(lp3771
I2023200
aF3.354354354354354
aa(lp3772
I2023416
aF2.347972972972973
aa(lp3773
I2023518
aF3.4242761692650334
aa(lp3774
I2023883
aF3.970347648261759
aa(lp3775
I2024111
aF2.9524838012958963
aa(lp3776
I2024833
aF3.7091503267973858
aa(lp3777
I2025153
aF3.14621409921671
aa(lp3778
I2025463
aF2.9462025316455698
aa(lp3779
I2025577
aF3.455259026687598
aa(lp3780
I2026477
aF3.1826086956521737
aa(lp3781
I2026560
aF4.173174872665535
aa(lp3782
I2026928
aF3.7761989342806395
aa(lp3783
I2028737
aF3.973333333333333
aa(lp3784
I2029744
aF3.101010101010101
aa(lp3785
I2029766
aF2.783333333333333
aa(lp3786
I2029858
aF3.1931931931931934
aa(lp3787
I2029979
aF3.0312221231043712
aa(lp3788
I2030523
aF4.212368728121354
aa(lp3789
I2030708
aF3.0812274368231045
aa(lp3790
I2032944
aF3.066326530612245
aa(lp3791
I2033070
aF3.6274738067520373
aa(lp3792
I2034589
aF3.6780905752753976
aa(lp3793
I2035299
aF3.5770992366412213
aa(lp3794
I2035310
aF3.819602272727273
aa(lp3795
I2035438
aF3.306985294117647
aa(lp3796
I2035595
aF2.642935377875137
aa(lp3797
I2036365
aF3.1588447653429603
aa(lp3798
I2036838
aF3.831858407079646
aa(lp3799
I2036973
aF3.559297218155198
aa(lp3800
I2037693
aF2.061590145576708
aa(lp3801
I2037890
aF3.1200607902735564
aa(lp3802
I2038137
aF3.6293375394321767
aa(lp3803
I2038196
aF3.529220779220779
aa(lp3804
I2039201
aF3.4085603112840466
aa(lp3805
I2039272
aF4.318347509113001
aa(lp3806
I2039521
aF3.207977207977208
aa(lp3807
I2040676
aF3.2212389380530975
aa(lp3808
I2040853
aF3.1844888366627497
aa(lp3809
I2040859
aF1.4868804664723032
aa(lp3810
I2041252
aF4.0879249706916765
aa(lp3811
I2041854
aF4.265977443609023
aa(lp3812
I2042985
aF3.425207756232687
aa(lp3813
I2043109
aF3.0543293718166384
aa(lp3814
I2043149
aF3.682983682983683
aa(lp3815
I2043555
aF3.1347438752783963
aa(lp3816
I2043784
aF3.354651162790698
aa(lp3817
I2045846
aF3.2828685258964145
aa(lp3818
I2045949
aF3.623003194888179
aa(lp3819
I2045981
aF3.456112852664577
aa(lp3820
I2046091
aF3.0690104166666665
aa(lp3821
I2046124
aF3.5996649916247905
aa(lp3822
I2046649
aF3.686900958466454
aa(lp3823
I2047178
aF3.6420612813370474
aa(lp3824
I2047577
aF4.078804347826087
aa(lp3825
I2047888
aF3.2580213903743314
aa(lp3826
I2048294
aF3.593582887700535
aa(lp3827
I2048686
aF3.4651773981603156
aa(lp3828
I2048858
aF3.061141304347826
aa(lp3829
I2048985
aF3.362876254180602
aa(lp3830
I2049734
aF3.3631687242798356
aa(lp3831
I2050590
aF3.0115384615384615
aa(lp3832
I2051278
aF3.988204456094364
aa(lp3833
I2051372
aF3.19164265129683
aa(lp3834
I2051538
aF3.3094098883572567
aa(lp3835
I2052789
aF3.4572425828970332
aa(lp3836
I2053907
aF3.5638686131386863
aa(lp3837
I2053910
aF4.079885877318117
aa(lp3838
I2053984
aF2.50506512301013
aa(lp3839
I2055178
aF3.7554438860971526
aa(lp3840
I2055243
aF3.064516129032258
aa(lp3841
I2055388
aF3.0732600732600734
aa(lp3842
I2056022
aF2.44057881773399
aa(lp3843
I2056324
aF2.943636363636364
aa(lp3844
I2056875
aF3.618811881188119
aa(lp3845
I2057529
aF3.420965058236273
aa(lp3846
I2057611
aF4.411949685534591
aa(lp3847
I2059141
aF4.234295415959253
aa(lp3848
I2059635
aF3.480804387568556
aa(lp3849
I2059696
aF3.5201380897583427
aa(lp3850
I2059738
aF3.3206686930091185
aa(lp3851
I2061495
aF3.238832638475283
aa(lp3852
I2061499
aF2.98993288590604
aa(lp3853
I2062350
aF3.4855150214592276
aa(lp3854
I2063030
aF2.9051724137931036
aa(lp3855
I2064713
aF2.85348506401138
aa(lp3856
I2064995
aF2.975093399750934
aa(lp3857
I2065164
aF3.5896980461811725
aa(lp3858
I2066490
aF3.372602739726027
aa(lp3859
I2068909
aF2.7943262411347516
aa(lp3860
I2068936
aF3.3892045454545454
aa(lp3861
I2069442
aF3.3326015367727773
aa(lp3862
I2070798
aF3.8854545454545453
aa(lp3863
I2070937
aF3.4107452339688042
aa(lp3864
I2071037
aF3.484304932735426
aa(lp3865
I2071210
aF3.405451448040886
aa(lp3866
I2071383
aF3.6476462196861625
aa(lp3867
I2071416
aF3.7757660167130918
aa(lp3868
I2072811
aF3.6660899653979238
aa(lp3869
I2072858
aF3.3444055944055946
aa(lp3870
I2073205
aF3.4398073836276084
aa(lp3871
I2073563
aF3.891184573002755
aa(lp3872
I2073629
aF3.3993231810490694
aa(lp3873
I2073766
aF3.8552803129074316
aa(lp3874
I2073799
aF3.022692889561271
aa(lp3875
I2074458
aF3.6115702479338845
aa(lp3876
I2075165
aF3.800604229607251
aa(lp3877
I2075584
aF3.6295025728987995
aa(lp3878
I2076358
aF2.512635379061372
aa(lp3879
I2076631
aF2.974739970282318
aa(lp3880
I2077046
aF3.595180722891566
aa(lp3881
I2077168
aF3.6373937677053823
aa(lp3882
I2077664
aF3.306122448979592
aa(lp3883
I2078245
aF3.158139534883721
aa(lp3884
I2079036
aF3.5949554896142435
aa(lp3885
I2079894
aF3.868622448979592
aa(lp3886
I2080549
aF4.054545454545455
aa(lp3887
I2081709
aF3.279491833030853
aa(lp3888
I2081789
aF3.5474254742547426
aa(lp3889
I2082635
aF3.3509433962264152
aa(lp3890
I2082864
aF3.0
aa(lp3891
I2083367
aF3.4843096234309625
aa(lp3892
I2084213
aF3.61660777385159
aa(lp3893
I2085211
aF3.648014440433213
aa(lp3894
I2085613
aF3.1071932299012692
aa(lp3895
I2085981
aF3.088724584103512
aa(lp3896
I2086265
aF3.1011363636363636
aa(lp3897
I2087093
aF3.0072463768115942
aa(lp3898
I2087711
aF3.8183333333333334
aa(lp3899
I2089599
aF2.5696302124311567
aa(lp3900
I2089742
aF3.484423676012461
aa(lp3901
I2089924
aF3.784163473818646
aa(lp3902
I2090015
aF3.6779448621553885
aa(lp3903
I2090369
aF3.5803722504230118
aa(lp3904
I2090715
aF2.9426751592356686
aa(lp3905
I2090792
aF3.1818181818181817
aa(lp3906
I2090850
aF2.8815977175463625
aa(lp3907
I2090902
aF3.403323262839879
aa(lp3908
I2091461
aF3.7781350482315115
aa(lp3909
I2091625
aF3.0890302066772657
aa(lp3910
I2091736
aF4.316146540027137
aa(lp3911
I2091892
aF3.0
aa(lp3912
I2092076
aF2.804953560371517
aa(lp3913
I2092609
aF2.9655172413793105
aa(lp3914
I2093105
aF2.9022346368715084
aa(lp3915
I2093590
aF3.3686200378071836
aa(lp3916
I2094599
aF3.3140495867768593
aa(lp3917
I2095910
aF3.313296903460838
aa(lp3918
I2096942
aF2.8642335766423357
aa(lp3919
I2097277
aF2.9053803339517623
aa(lp3920
I2097548
aF4.158284023668639
aa(lp3921
I2097976
aF3.216833095577746
aa(lp3922
I2097995
aF3.4556737588652484
aa(lp3923
I2098006
aF3.1753130590339893
aa(lp3924
I2098138
aF4.204460966542751
aa(lp3925
I2098983
aF4.16374269005848
aa(lp3926
I2099446
aF3.6242527754056364
aa(lp3927
I2100306
aF3.8249641319942613
aa(lp3928
I2100574
aF4.534318901795142
aa(lp3929
I2100684
aF3.609271523178808
aa(lp3930
I2100834
aF2.8933566433566433
aa(lp3931
I2101288
aF3.09391124871001
aa(lp3932
I2101921
aF3.2385057471264367
aa(lp3933
I2102030
aF3.9316730523627075
aa(lp3934
I2102846
aF3.253125
aa(lp3935
I2103029
aF2.910982658959538
aa(lp3936
I2103047
aF4.509838998211091
aa(lp3937
I2103116
aF3.334913112164297
aa(lp3938
I2103314
aF3.5120274914089347
aa(lp3939
I2105294
aF3.419182948490231
aa(lp3940
I2105602
aF3.504491017964072
aa(lp3941
I2105883
aF4.735690235690235
aa(lp3942
I2107068
aF3.7374429223744294
aa(lp3943
I2107198
aF3.426403641881639
aa(lp3944
I2107249
aF2.9662522202486676
aa(lp3945
I2107839
aF3.001432664756447
aa(lp3946
I2110107
aF4.027292576419214
aa(lp3947
I2110341
aF3.9392265193370166
aa(lp3948
I2110645
aF3.004362050163577
aa(lp3949
I2111120
aF3.8687707641196014
aa(lp3950
I2111672
aF2.9782608695652173
aa(lp3951
I2112089
aF3.261068702290076
aa(lp3952
I2112141
aF3.1228373702422147
aa(lp3953
I2112383
aF4.256410256410256
aa(lp3954
I2113596
aF3.5813253012048194
aa(lp3955
I2113709
aF3.0
aa(lp3956
I2115145
aF2.6421636615811375
aa(lp3957
I2115174
aF3.8306306306306306
aa(lp3958
I2115299
aF3.9078947368421053
aa(lp3959
I2115908
aF3.591743119266055
aa(lp3960
I2115962
aF3.920863309352518
aa(lp3961
I2115977
aF3.4708454810495626
aa(lp3962
I2117432
aF2.849154746423927
aa(lp3963
I2117885
aF3.58477508650519
aa(lp3964
I2118461
aF4.075110959371799
aa(lp3965
I2118863
aF3.4660493827160495
aa(lp3966
I2118885
aF3.266586248492159
aa(lp3967
I2119007
aF3.605090909090909
aa(lp3968
I2119555
aF4.376012965964343
aa(lp3969
I2120303
aF3.7124352331606216
aa(lp3970
I2120864
aF3.5161691542288556
aa(lp3971
I2120912
aF3.383777239709443
aa(lp3972
I2120968
aF3.045112781954887
aa(lp3973
I2120970
aF3.657293497363796
aa(lp3974
I2121379
aF4.0084507042253525
aa(lp3975
I2121765
aF2.9665071770334928
aa(lp3976
I2122285
aF4.515789473684211
aa(lp3977
I2122377
aF3.566420664206642
aa(lp3978
I2122850
aF3.2820976491862566
aa(lp3979
I2124351
aF3.598896044158234
aa(lp3980
I2125035
aF3.585570469798658
aa(lp3981
I2125368
aF3.7816229116945106
aa(lp3982
I2125582
aF3.8425925925925926
aa(lp3983
I2125852
aF4.270363951473137
aa(lp3984
I2126168
aF3.3588235294117648
aa(lp3985
I2126215
aF2.75140607424072
aa(lp3986
I2127108
aF3.304623753399819
aa(lp3987
I2127496
aF4.121082621082621
aa(lp3988
I2128219
aF3.5289514866979657
aa(lp3989
I2128440
aF3.9029255319148937
aa(lp3990
I2129120
aF3.5046728971962615
aa(lp3991
I2129174
aF3.869718309859155
aa(lp3992
I2130244
aF3.3660714285714284
aa(lp3993
I2130859
aF3.515406162464986
aa(lp3994
I2132254
aF3.597302504816956
aa(lp3995
I2133551
aF3.606687898089172
aa(lp3996
I2133714
aF3.4963325183374083
aa(lp3997
I2133752
aF3.48689138576779
aa(lp3998
I2133771
aF2.9840510366826156
aa(lp3999
I2134425
aF3.4982517482517483
aa(lp4000
I2135939
aF3.680580762250454
aa(lp4001
I2136526
aF3.61231884057971
aa(lp4002
I2136912
aF3.491472868217054
aa(lp4003
I2136927
aF3.275392670157068
aa(lp4004
I2137371
aF3.0795660036166366
aa(lp4005
I2137795
aF2.8551637279596975
aa(lp4006
I2138746
aF3.189686924493554
aa(lp4007
I2138757
aF3.3901192504258946
aa(lp4008
I2138793
aF3.010178117048346
aa(lp4009
I2138857
aF3.482084690553746
aa(lp4010
I2138987
aF3.170765027322404
aa(lp4011
I2139083
aF3.405925925925926
aa(lp4012
I2140471
aF3.7935153583617747
aa(lp4013
I2140883
aF3.5303867403314917
aa(lp4014
I2141089
aF4.347003154574132
aa(lp4015
I2141105
aF3.5373831775700935
aa(lp4016
I2142230
aF3.853623188405797
aa(lp4017
I2143500
aF2.690164626424652
aa(lp4018
I2143870
aF2.89010989010989
aa(lp4019
I2144655
aF4.051918735891648
aa(lp4020
I2144951
aF2.6947935368043088
aa(lp4021
I2145441
aF3.9896432681242806
aa(lp4022
I2145575
aF3.603318250377074
aa(lp4023
I2147527
aF2.0124677558039554
aa(lp4024
I2147545
aF2.919308357348703
aa(lp4025
I2147714
aF3.056537102473498
aa(lp4026
I2148197
aF3.390374331550802
aa(lp4027
I2148252
aF3.4295774647887325
aa(lp4028
I2149357
aF3.4673202614379086
aa(lp4029
I2150689
aF3.4285714285714284
aa(lp4030
I2150746
aF3.155453951665578
aa(lp4031
I2151359
aF3.539404553415061
aa(lp4032
I2151468
aF2.440058479532164
aa(lp4033
I2151845
aF3.3898809523809526
aa(lp4034
I2152273
aF3.6437718277066358
aa(lp4035
I2152465
aF3.738213399503722
aa(lp4036
I2152805
aF3.36374549819928
aa(lp4037
I2152856
aF3.5669824086603517
aa(lp4038
I2153721
aF2.5308510638297874
aa(lp4039
I2155681
aF3.565648224607762
aa(lp4040
I2156074
aF3.141284403669725
aa(lp4041
I2156165
aF2.6763565891472867
aa(lp4042
I2156368
aF3.3975265017667846
aa(lp4043
I2156630
aF3.7871621621621623
aa(lp4044
I2157060
aF2.6871387283236996
aa(lp4045
I2158495
aF3.3433544303797467
aa(lp4046
I2158747
aF2.4855643044619424
aa(lp4047
I2159290
aF3.511864406779661
aa(lp4048
I2160527
aF3.4838235294117648
aa(lp4049
I2160787
aF3.311864406779661
aa(lp4050
I2161899
aF3.1885913853317813
aa(lp4051
I2162424
aF3.639784946236559
aa(lp4052
I2162539
aF3.278481012658228
aa(lp4053
I2162641
aF2.9767441860465116
aa(lp4054
I2162676
aF2.7826825127334467
aa(lp4055
I2163939
aF3.7473867595818815
aa(lp4056
I2164729
aF4.273273273273273
aa(lp4057
I2165353
aF3.661242603550296
aa(lp4058
I2166018
aF3.4866803278688523
aa(lp4059
I2167041
aF4.388489208633094
aa(lp4060
I2167214
aF4.146067415730337
aa(lp4061
I2167703
aF3.0778364116094985
aa(lp4062
I2167896
aF3.359550561797753
aa(lp4063
I2168178
aF3.2292899408284024
aa(lp4064
I2169283
aF3.8008415147265078
aa(lp4065
I2170930
aF1.0
aa(lp4066
I2171089
aF3.4661417322834644
aa(lp4067
I2171187
aF3.271139705882353
aa(lp4068
I2172649
aF2.7354430379746835
aa(lp4069
I2173152
aF3.645220588235294
aa(lp4070
I2174151
aF3.9427987742594484
aa(lp4071
I2176056
aF3.3216783216783217
aa(lp4072
I2176304
aF4.0652818991097925
aa(lp4073
I2176465
aF2.351768488745981
aa(lp4074
I2176780
aF3.75974025974026
aa(lp4075
I2177085
aF4.128048780487805
aa(lp4076
I2178203
aF4.4818181818181815
aa(lp4077
I2178729
aF2.740608228980322
aa(lp4078
I2179335
aF3.712556732223903
aa(lp4079
I2179550
aF2.7125
aa(lp4080
I2179833
aF3.0018382352941178
aa(lp4081
I2179904
aF3.9562937062937062
aa(lp4082
I2180413
aF3.4572425828970332
aa(lp4083
I2181504
aF3.4100135317997293
aa(lp4084
I2181739
aF3.894179894179894
aa(lp4085
I2182532
aF3.377840909090909
aa(lp4086
I2182722
aF3.6602787456445993
aa(lp4087
I2184768
aF3.796969696969697
aa(lp4088
I2185058
aF3.870716510903427
aa(lp4089
I2185614
aF3.1519607843137254
aa(lp4090
I2186235
aF3.2815884476534296
aa(lp4091
I2186505
aF2.70556552962298
aa(lp4092
I2186820
aF3.0164203612479477
aa(lp4093
I2186920
aF4.059907834101383
aa(lp4094
I2186938
aF3.5180505415162453
aa(lp4095
I2187693
aF4.016064257028113
aa(lp4096
I2188684
aF3.541364296081277
aa(lp4097
I2189638
aF3.555133079847909
aa(lp4098
I2190100
aF3.613793103448276
aa(lp4099
I2192288
aF4.146252285191956
aa(lp4100
I2192840
aF3.072948328267477
aa(lp4101
I2193044
aF3.3429394812680115
aa(lp4102
I2194079
aF3.976127320954907
aa(lp4103
I2194719
aF2.9567099567099566
aa(lp4104
I2195071
aF3.255072463768116
aa(lp4105
I2195606
aF3.1710296684118675
aa(lp4106
I2195910
aF3.3450704225352115
aa(lp4107
I2196083
aF3.1982608695652175
aa(lp4108
I2198070
aF3.651387213510253
aa(lp4109
I2198123
aF3.022508038585209
aa(lp4110
I2199355
aF3.3251612903225807
aa(lp4111
I2201302
aF4.463623395149786
aa(lp4112
I2201323
aF3.615497076023392
aa(lp4113
I2201507
aF3.744642857142857
aa(lp4114
I2202365
aF3.6943699731903483
aa(lp4115
I2203182
aF3.8242343541944073
aa(lp4116
I2203225
aF1.7349159248269042
aa(lp4117
I2203244
aF2.4744744744744747
aa(lp4118
I2203809
aF3.7657935285053927
aa(lp4119
I2204299
aF3.632727272727273
aa(lp4120
I2204336
aF2.793956043956044
aa(lp4121
I2204444
aF3.0775988286969254
aa(lp4122
I2204563
aF3.011744966442953
aa(lp4123
I2204671
aF3.5968169761273208
aa(lp4124
I2204694
aF3.538352272727273
aa(lp4125
I2204746
aF4.230344827586207
aa(lp4126
I2204961
aF3.6230366492146597
aa(lp4127
I2205104
aF3.046017699115044
aa(lp4128
I2205259
aF3.411834319526627
aa(lp4129
I2205594
aF2.9195148842337377
aa(lp4130
I2205734
aF3.798751950078003
aa(lp4131
I2206151
aF3.290035587188612
aa(lp4132
I2206502
aF3.984848484848485
aa(lp4133
I2206659
aF3.9072847682119205
aa(lp4134
I2207031
aF3.3670348343245537
aa(lp4135
I2207806
aF3.6982456140350877
aa(lp4136
I2207914
aF2.8843416370106763
aa(lp4137
I2207951
aF2.9452991452991455
aa(lp4138
I2208519
aF2.9845626072041167
aa(lp4139
I2209153
aF2.8330578512396696
aa(lp4140
I2209351
aF4.142857142857143
aa(lp4141
I2210272
aF3.984014209591474
aa(lp4142
I2210867
aF3.3203007518796994
aa(lp4143
I2213131
aF3.5563002680965146
aa(lp4144
I2214251
aF2.9686985172981877
aa(lp4145
I2215021
aF3.3393739703459637
aa(lp4146
I2215076
aF3.38328530259366
aa(lp4147
I2216056
aF3.8735795454545454
aa(lp4148
I2216150
aF3.1479500891265597
aa(lp4149
I2216856
aF3.332378223495702
aa(lp4150
I2217027
aF3.7504302925989674
aa(lp4151
I2217731
aF3.441818181818182
aa(lp4152
I2217988
aF3.37243947858473
aa(lp4153
I2218269
aF3.615273775216138
aa(lp4154
I2218735
aF3.736474694589878
aa(lp4155
I2218750
aF3.5790172642762283
aa(lp4156
I2218826
aF3.4518760195758564
aa(lp4157
I2219187
aF3.3184357541899443
aa(lp4158
I2219287
aF3.413312693498452
aa(lp4159
I2220239
aF3.126241134751773
aa(lp4160
I2220732
aF2.413768115942029
aa(lp4161
I2220847
aF3.3208191126279862
aa(lp4162
I2221430
aF4.127306273062731
aa(lp4163
I2222089
aF2.697635135135135
aa(lp4164
I2222177
aF3.326984126984127
aa(lp4165
I2222576
aF3.65014164305949
aa(lp4166
I2223740
aF4.067880794701987
aa(lp4167
I2225743
aF2.0599221789883266
aa(lp4168
I2226510
aF3.2587548638132295
aa(lp4169
I2226525
aF3.3316582914572863
aa(lp4170
I2227804
aF3.9368421052631577
aa(lp4171
I2228502
aF3.7887563884156727
aa(lp4172
I2228750
aF3.6196840826245444
aa(lp4173
I2228763
aF4.54679802955665
aa(lp4174
I2229377
aF3.128500823723229
aa(lp4175
I2229399
aF3.484049930651872
aa(lp4176
I2229960
aF3.5838751625487646
aa(lp4177
I2231930
aF3.7492836676217767
aa(lp4178
I2232041
aF3.523076923076923
aa(lp4179
I2232563
aF3.297192642787996
aa(lp4180
I2233293
aF3.931570762052877
aa(lp4181
I2233782
aF3.6205479452054794
aa(lp4182
I2234535
aF3.271889400921659
aa(lp4183
I2234845
aF3.362815884476534
aa(lp4184
I2235166
aF3.2481884057971016
aa(lp4185
I2235414
aF3.7363112391930837
aa(lp4186
I2237185
aF3.335888835649257
aa(lp4187
I2237907
aF3.1379897785349233
aa(lp4188
I2237950
aF3.966183574879227
aa(lp4189
I2237988
aF3.2189859762675295
aa(lp4190
I2238060
aF4.03698752228164
aa(lp4191
I2238629
aF2.3960149439601492
aa(lp4192
I2238663
aF3.9410714285714286
aa(lp4193
I2239209
aF2.56710775047259
aa(lp4194
I2239213
aF2.630813953488372
aa(lp4195
I2239360
aF3.84641638225256
aa(lp4196
I2239537
aF3.4602739726027396
aa(lp4197
I2240770
aF3.1794453507340945
aa(lp4198
I2241438
aF3.943620178041543
aa(lp4199
I2241806
aF4.423529411764706
aa(lp4200
I2241897
aF3.113970588235294
aa(lp4201
I2242958
aF2.3642987249544625
aa(lp4202
I2243435
aF2.9877750611246943
aa(lp4203
I2243515
aF3.6192893401015227
aa(lp4204
I2244258
aF3.113676731793961
aa(lp4205
I2244589
aF3.1031746031746033
aa(lp4206
I2244849
aF3.2771338250790305
aa(lp4207
I2245579
aF3.4849557522123895
aa(lp4208
I2246248
aF3.9680426098535286
aa(lp4209
I2246923
aF2.7745571658615136
aa(lp4210
I2247785
aF3.397887323943662
aa(lp4211
I2247982
aF3.881081081081081
aa(lp4212
I2248080
aF2.826398852223816
aa(lp4213
I2248543
aF3.6839285714285714
aa(lp4214
I2249634
aF3.695142378559464
aa(lp4215
I2250261
aF3.557142857142857
aa(lp4216
I2250323
aF2.8938321536905964
aa(lp4217
I2250552
aF3.3315508021390374
aa(lp4218
I2251582
aF2.599198396793587
aa(lp4219
I2251669
aF3.32967032967033
aa(lp4220
I2252217
aF3.780569514237856
aa(lp4221
I2252455
aF3.053703703703704
aa(lp4222
I2253160
aF3.448717948717949
aa(lp4223
I2253953
aF3.275409836065574
aa(lp4224
I2254751
aF3.15962441314554
aa(lp4225
I2255880
aF2.5263537906137183
aa(lp4226
I2256454
aF2.897400820793434
aa(lp4227
I2256485
aF1.8268897864974034
aa(lp4228
I2256731
aF2.619593998234775
aa(lp4229
I2257122
aF4.034571062740077
aa(lp4230
I2257189
aF2.5381008206330598
aa(lp4231
I2257323
aF2.8273657289002556
aa(lp4232
I2259174
aF3.613193403298351
aa(lp4233
I2259898
aF3.020440251572327
aa(lp4234
I2260008
aF3.0
aa(lp4235
I2260761
aF4.037704918032787
aa(lp4236
I2260788
aF2.651851851851852
aa(lp4237
I2260832
aF2.411258795934324
aa(lp4238
I2262335
aF2.780701754385965
aa(lp4239
I2262890
aF3.2508474576271187
aa(lp4240
I2263041
aF3.592171717171717
aa(lp4241
I2263991
aF3.52724358974359
aa(lp4242
I2264286
aF3.8846153846153846
aa(lp4243
I2264371
aF2.8738404452690167
aa(lp4244
I2264426
aF3.5968331303288674
aa(lp4245
I2264638
aF3.318739054290718
aa(lp4246
I2266083
aF4.070411392405063
aa(lp4247
I2266166
aF2.168711656441718
aa(lp4248
I2267322
aF2.6132879045996593
aa(lp4249
I2267735
aF2.915921288014311
aa(lp4250
I2268019
aF2.73731884057971
aa(lp4251
I2268573
aF1.9829497016197783
aa(lp4252
I2269029
aF3.641868512110727
aa(lp4253
I2269039
aF3.8538873994638068
aa(lp4254
I2269100
aF3.604240282685512
aa(lp4255
I2270041
aF2.7397476340694005
aa(lp4256
I2270619
aF4.966057441253263
aa(lp4257
I2271702
aF3.565092989985694
aa(lp4258
I2272654
aF3.290066225165563
aa(lp4259
I2274199
aF3.180633147113594
aa(lp4260
I2274438
aF3.692889561270802
aa(lp4261
I2274452
aF3.436220472440945
aa(lp4262
I2276333
aF3.5349143610013174
aa(lp4263
I2276659
aF2.649167733674776
aa(lp4264
I2276790
aF2.834215167548501
aa(lp4265
I2278766
aF3.370285714285714
aa(lp4266
I2279366
aF3.188650306748466
aa(lp4267
I2280025
aF3.664451827242525
aa(lp4268
I2280493
aF3.5483304042179262
aa(lp4269
I2282041
aF3.8123861566484516
aa(lp4270
I2283211
aF2.7804878048780486
aa(lp4271
I2283319
aF3.2816399286987523
aa(lp4272
I2283366
aF3.0397923875432524
aa(lp4273
I2283695
aF3.0466988727858295
aa(lp4274
I2283770
aF3.9565916398713825
aa(lp4275
I2284110
aF3.972461273666093
aa(lp4276
I2284673
aF2.8386605783866057
aa(lp4277
I2284890
aF3.0748091603053433
aa(lp4278
I2286189
aF4.089928057553957
aa(lp4279
I2286380
aF4.072669826224328
aa(lp4280
I2286785
aF3.8167202572347265
aa(lp4281
I2287125
aF2.879588839941263
aa(lp4282
I2287836
aF3.197986577181208
aa(lp4283
I2289197
aF2.7921108742004264
aa(lp4284
I2289956
aF3.915875169606513
aa(lp4285
I2290263
aF3.500709219858156
aa(lp4286
I2290508
aF3.294332723948812
aa(lp4287
I2290732
aF3.4076763485477177
aa(lp4288
I2291170
aF3.9016715830875124
aa(lp4289
I2291306
aF2.1237060041407867
aa(lp4290
I2291589
aF3.43849493487699
aa(lp4291
I2291750
aF3.818014705882353
aa(lp4292
I2292140
aF3.748872180451128
aa(lp4293
I2293836
aF2.753623188405797
aa(lp4294
I2294110
aF3.476280834914611
aa(lp4295
I2294328
aF3.429837518463811
aa(lp4296
I2295235
aF3.7533333333333334
aa(lp4297
I2295321
aF3.7152542372881356
aa(lp4298
I2295501
aF2.787128712871287
aa(lp4299
I2295594
aF3.01323706377858
aa(lp4300
I2295922
aF3.3825042881646654
aa(lp4301
I2296108
aF3.5893719806763285
aa(lp4302
I2296193
aF2.7948717948717947
aa(lp4303
I2296816
aF3.137864077669903
aa(lp4304
I2297074
aF2.9863523573200994
aa(lp4305
I2297136
aF1.824585635359116
aa(lp4306
I2297386
aF3.4563758389261743
aa(lp4307
I2297654
aF3.314035087719298
aa(lp4308
I2299152
aF3.4709066305818674
aa(lp4309
I2299436
aF3.728695652173913
aa(lp4310
I2299517
aF3.826923076923077
aa(lp4311
I2299661
aF3.953225806451613
aa(lp4312
I2299951
aF3.26621490803485
aa(lp4313
I2301246
aF4.342064714946071
aa(lp4314
I2301393
aF2.916211293260474
aa(lp4315
I2303820
aF3.111878453038674
aa(lp4316
I2304924
aF3.3419062027231465
aa(lp4317
I2305067
aF3.8148614609571787
aa(lp4318
I2305978
aF3.522727272727273
aa(lp4319
I2306984
aF3.281710914454277
aa(lp4320
I2307327
aF3.2863436123348015
aa(lp4321
I2308472
aF3.0206349206349206
aa(lp4322
I2309047
aF3.1882352941176473
aa(lp4323
I2310889
aF3.503225806451613
aa(lp4324
I2311863
aF3.450980392156863
aa(lp4325
I2311867
aF3.3035479632063076
aa(lp4326
I2312349
aF3.1741233373639663
aa(lp4327
I2313013
aF3.5925233644859813
aa(lp4328
I2314898
aF3.496794871794872
aa(lp4329
I2314956
aF3.178779069767442
aa(lp4330
I2315012
aF2.475550122249389
aa(lp4331
I2315073
aF2.9857142857142858
aa(lp4332
I2315130
aF4.235294117647059
aa(lp4333
I2315135
aF3.900153609831029
aa(lp4334
I2315404
aF4.081521739130435
aa(lp4335
I2315626
aF3.560070671378092
aa(lp4336
I2316252
aF3.7045454545454546
aa(lp4337
I2316337
aF3.539855072463768
aa(lp4338
I2316429
aF3.564831261101243
aa(lp4339
I2316963
aF4.636515912897822
aa(lp4340
I2317703
aF3.469724770642202
aa(lp4341
I2318311
aF3.335593220338983
aa(lp4342
I2318762
aF3.5388198757763973
aa(lp4343
I2319282
aF3.30816077953715
aa(lp4344
I2320177
aF3.037325038880249
aa(lp4345
I2320222
aF3.6816380449141346
aa(lp4346
I2320697
aF2.506838294448914
aa(lp4347
I2320706
aF3.8460111317254175
aa(lp4348
I2321435
aF3.2371475953565505
aa(lp4349
I2321519
aF2.992957746478873
aa(lp4350
I2322250
aF3.0128205128205128
aa(lp4351
I2322355
aF3.81422351233672
aa(lp4352
I2322383
aF3.523978685612789
aa(lp4353
I2324287
aF3.3787085514834208
aa(lp4354
I2325040
aF2.8207381370826012
aa(lp4355
I2325737
aF4.132267441860465
aa(lp4356
I2327122
aF3.5264
aa(lp4357
I2327365
aF4.345509893455099
aa(lp4358
I2327386
aF2.8905109489051095
aa(lp4359
I2327743
aF3.3543522960932144
aa(lp4360
I2328511
aF3.479145473041709
aa(lp4361
I2328701
aF4.196193265007321
aa(lp4362
I2329026
aF3.3670348343245537
aa(lp4363
I2329196
aF3.831144465290807
aa(lp4364
I2330519
aF3.4909420289855073
aa(lp4365
I2330565
aF3.2746031746031745
aa(lp4366
I2330786
aF3.798941798941799
aa(lp4367
I2331318
aF3.240506329113924
aa(lp4368
I2331946
aF3.132275132275132
aa(lp4369
I2332058
aF3.4917491749174916
aa(lp4370
I2332377
aF3.7669565217391305
aa(lp4371
I2332765
aF2.910820451843044
aa(lp4372
I2333763
aF3.7880794701986753
aa(lp4373
I2333850
aF3.5474452554744524
aa(lp4374
I2334283
aF3.42152466367713
aa(lp4375
I2334757
aF3.4879310344827585
aa(lp4376
I2335640
aF2.825675675675676
aa(lp4377
I2336079
aF2.8119402985074626
aa(lp4378
I2336531
aF4.031636863823934
aa(lp4379
I2337014
aF2.920255183413078
aa(lp4380
I2337144
aF2.927899686520376
aa(lp4381
I2338019
aF2.949740034662045
aa(lp4382
I2338157
aF2.3755458515283845
aa(lp4383
I2338809
aF3.683930942895086
aa(lp4384
I2339135
aF3.4342359767891684
aa(lp4385
I2339734
aF3.5420219244823388
aa(lp4386
I2339981
aF3.9630681818181817
aa(lp4387
I2340228
aF3.685763888888889
aa(lp4388
I2341389
aF2.8259773013871374
aa(lp4389
I2341581
aF2.5936454849498327
aa(lp4390
I2341658
aF3.1818181818181817
aa(lp4391
I2341871
aF3.679465776293823
aa(lp4392
I2343417
aF4.088945362134688
aa(lp4393
I2345098
aF2.8890134529147984
aa(lp4394
I2345122
aF3.320695102685624
aa(lp4395
I2345215
aF3.433644859813084
aa(lp4396
I2345454
aF3.305927342256214
aa(lp4397
I2349412
aF3.2557172557172556
aa(lp4398
I2349571
aF3.395264116575592
aa(lp4399
I2349702
aF3.2851239669421486
aa(lp4400
I2350588
aF3.8379772961816307
aa(lp4401
I2351276
aF2.532561505065123
aa(lp4402
I2351402
aF3.4739336492890995
aa(lp4403
I2351580
aF2.915531335149864
aa(lp4404
I2352972
aF2.9276315789473686
aa(lp4405
I2353276
aF3.6859504132231407
aa(lp4406
I2354740
aF3.801175318315377
aa(lp4407
I2354764
aF2.9623493975903616
aa(lp4408
I2355625
aF3.014025245441795
aa(lp4409
I2355940
aF3.9377593360995853
aa(lp4410
I2356355
aF3.641815235008104
aa(lp4411
I2356682
aF3.390492359932088
aa(lp4412
I2356793
aF4.160739687055477
aa(lp4413
I2356870
aF3.2272202998846597
aa(lp4414
I2356911
aF3.324438202247191
aa(lp4415
I2358148
aF3.080858085808581
aa(lp4416
I2358855
aF3.308219178082192
aa(lp4417
I2358990
aF3.088379705400982
aa(lp4418
I2360117
aF3.4731638418079096
aa(lp4419
I2360158
aF3.4115853658536586
aa(lp4420
I2360721
aF3.4179620034542313
aa(lp4421
I2360767
aF3.7853736089030208
aa(lp4422
I2360796
aF4.213270142180095
aa(lp4423
I2360906
aF2.685053380782918
aa(lp4424
I2361318
aF3.44336569579288
aa(lp4425
I2361556
aF3.7875210792580103
aa(lp4426
I2361743
aF3.5154109589041096
aa(lp4427
I2361804
aF2.757575757575758
aa(lp4428
I2364018
aF3.5311614730878187
aa(lp4429
I2364377
aF3.1883333333333335
aa(lp4430
I2364551
aF4.784090909090909
aa(lp4431
I2365581
aF3.567805953693495
aa(lp4432
I2366006
aF3.148268398268398
aa(lp4433
I2366462
aF3.1083249749247743
aa(lp4434
I2366524
aF3.1879432624113475
aa(lp4435
I2368686
aF3.0297029702970297
aa(lp4436
I2370740
aF3.9135802469135803
aa(lp4437
I2370879
aF3.867970660146699
aa(lp4438
I2371144
aF4.134762633996937
aa(lp4439
I2372141
aF2.9539551357733176
aa(lp4440
I2372364
aF3.058287795992714
aa(lp4441
I2373185
aF3.748271092669433
aa(lp4442
I2373453
aF3.6032028469750887
aa(lp4443
I2374451
aF3.8210526315789473
aa(lp4444
I2374631
aF3.2367972742759794
aa(lp4445
I2374726
aF3.2768361581920904
aa(lp4446
I2374782
aF3.9838709677419355
aa(lp4447
I2375033
aF3.013157894736842
aa(lp4448
I2375169
aF3.317931793179318
aa(lp4449
I2375380
aF3.5501253132832082
aa(lp4450
I2375687
aF3.575174825174825
aa(lp4451
I2375962
aF2.773353751914242
aa(lp4452
I2375964
aF2.6340482573726542
aa(lp4453
I2376301
aF4.389528795811518
aa(lp4454
I2376375
aF3.3554421768707483
aa(lp4455
I2376801
aF3.576923076923077
aa(lp4456
I2377061
aF3.6575121163166395
aa(lp4457
I2378393
aF3.3028263795423958
aa(lp4458
I2378918
aF3.609903381642512
aa(lp4459
I2379200
aF3.4559585492227978
aa(lp4460
I2380329
aF3.243144424131627
aa(lp4461
I2380603
aF3.2762063227953413
aa(lp4462
I2381792
aF3.531297709923664
aa(lp4463
I2383871
aF3.4007731958762886
aa(lp4464
I2384478
aF2.9835255354200987
aa(lp4465
I2385226
aF3.978233034571063
aa(lp4466
I2385435
aF4.0239043824701195
aa(lp4467
I2385481
aF3.1701183431952664
aa(lp4468
I2385925
aF3.234782608695652
aa(lp4469
I2386059
aF3.980952380952381
aa(lp4470
I2386443
aF3.0592105263157894
aa(lp4471
I2386868
aF3.3235831809872027
aa(lp4472
I2386920
aF2.966010733452594
aa(lp4473
I2387463
aF3.7451403887688985
aa(lp4474
I2387672
aF4.63986013986014
aa(lp4475
I2387707
aF3.041795665634675
aa(lp4476
I2387734
aF3.3361064891846923
aa(lp4477
I2387904
aF3.003225806451613
aa(lp4478
I2387919
aF2.992248062015504
aa(lp4479
I2387961
aF3.3628318584070795
aa(lp4480
I2388205
aF3.2791519434628977
aa(lp4481
I2389101
aF3.8975265017667846
aa(lp4482
I2389367
aF3.128205128205128
aa(lp4483
I2389860
aF4.323343848580442
aa(lp4484
I2390609
aF3.089788732394366
aa(lp4485
I2391686
aF2.6742627345844503
aa(lp4486
I2392051
aF3.4832451499118164
aa(lp4487
I2392770
aF4.132283464566929
aa(lp4488
I2393478
aF3.4203494347379237
aa(lp4489
I2393632
aF3.764378478664193
aa(lp4490
I2394024
aF3.5510204081632653
aa(lp4491
I2394211
aF2.9807162534435263
aa(lp4492
I2394623
aF3.736842105263158
aa(lp4493
I2394704
aF2.7571090047393363
aa(lp4494
I2394802
aF3.7478705281090288
aa(lp4495
I2395020
aF4.1471698113207545
aa(lp4496
I2396089
aF3.3993231810490694
aa(lp4497
I2396118
aF3.332859174964438
aa(lp4498
I2396197
aF2.8519195612431445
aa(lp4499
I2396324
aF2.829160530191458
aa(lp4500
I2396765
aF2.903703703703704
aa(lp4501
I2397061
aF3.23644578313253
aa(lp4502
I2397204
aF3.516181229773463
aa(lp4503
I2397231
aF3.5285326086956523
aa(lp4504
I2398061
aF3.842047930283224
aa(lp4505
I2398295
aF3.781733746130031
aa(lp4506
I2398373
aF3.288702928870293
aa(lp4507
I2398509
aF3.244131455399061
aa(lp4508
I2398656
aF3.2231833910034604
aa(lp4509
I2398821
aF2.89
aa(lp4510
I2398923
aF2.7126436781609193
aa(lp4511
I2400645
aF4.057262569832402
aa(lp4512
I2400911
aF3.051813471502591
aa(lp4513
I2401136
aF3.6045454545454545
aa(lp4514
I2401585
aF3.360204081632653
aa(lp4515
I2401693
aF4.352845528455284
aa(lp4516
I2402136
aF3.633766233766234
aa(lp4517
I2402139
aF2.903409090909091
aa(lp4518
I2402990
aF3.2749003984063747
aa(lp4519
I2403533
aF3.606656580937973
aa(lp4520
I2403601
aF3.3668730650154797
aa(lp4521
I2404142
aF3.6413427561837457
aa(lp4522
I2405311
aF3.2679938744257275
aa(lp4523
I2405421
aF4.772649572649573
aa(lp4524
I2406094
aF3.674757281553398
aa(lp4525
I2406150
aF3.066565809379728
aa(lp4526
I2406705
aF2.2855614973262033
aa(lp4527
I2406958
aF3.5279329608938546
aa(lp4528
I2407154
aF3.698478561549101
aa(lp4529
I2407453
aF3.610071942446043
aa(lp4530
I2407866
aF3.326164874551971
aa(lp4531
I2407994
aF3.390681003584229
aa(lp4532
I2408145
aF2.996497373029772
aa(lp4533
I2409280
aF3.7048903878583475
aa(lp4534
I2409398
aF2.908759124087591
aa(lp4535
I2409465
aF3.305945945945946
aa(lp4536
I2411453
aF2.5128205128205128
aa(lp4537
I2411531
aF2.9662162162162162
aa(lp4538
I2412265
aF3.1386986301369864
aa(lp4539
I2412372
aF3.112391930835735
aa(lp4540
I2412596
aF3.662361623616236
aa(lp4541
I2412874
aF3.4719101123595504
aa(lp4542
I2412878
aF3.311111111111111
aa(lp4543
I2413320
aF3.2867012089810017
aa(lp4544
I2413595
aF3.537290715372907
aa(lp4545
I2413875
aF3.711433756805808
aa(lp4546
I2415196
aF3.1450068399452804
aa(lp4547
I2415495
aF3.2033898305084745
aa(lp4548
I2415589
aF3.3251445086705202
aa(lp4549
I2416290
aF2.5081351689612017
aa(lp4550
I2416772
aF3.5136
aa(lp4551
I2417151
aF3.787318361955086
aa(lp4552
I2417320
aF3.3299620733249053
aa(lp4553
I2417531
aF3.2419354838709675
aa(lp4554
I2417957
aF3.8038277511961724
aa(lp4555
I2418086
aF3.4508599508599507
aa(lp4556
I2419242
aF3.7652027027027026
aa(lp4557
I2419406
aF2.8710801393728222
aa(lp4558
I2419975
aF3.6110154905335627
aa(lp4559
I2420298
aF3.2732644017725256
aa(lp4560
I2420384
aF3.5619967793880836
aa(lp4561
I2420828
aF3.546816479400749
aa(lp4562
I2421395
aF3.3364779874213837
aa(lp4563
I2422606
aF3.442622950819672
aa(lp4564
I2424335
aF3.821939586645469
aa(lp4565
I2424587
aF3.3419689119170983
aa(lp4566
I2424683
aF3.3322734499205087
aa(lp4567
I2424839
aF3.55810147299509
aa(lp4568
I2425137
aF3.339688041594454
aa(lp4569
I2425195
aF3.3645320197044337
aa(lp4570
I2425260
aF3.2645985401459856
aa(lp4571
I2426395
aF2.775
aa(lp4572
I2426539
aF3.2675044883303412
aa(lp4573
I2426964
aF3.3860759493670884
aa(lp4574
I2427026
aF2.9371345029239766
aa(lp4575
I2428423
aF3.417312661498708
aa(lp4576
I2429294
aF4.545706371191136
aa(lp4577
I2429310
aF3.325825825825826
aa(lp4578
I2430041
aF3.1409897292250233
aa(lp4579
I2432848
aF3.7997364953886694
aa(lp4580
I2432893
aF3.315
aa(lp4581
I2432917
aF3.52233676975945
aa(lp4582
I2433610
aF3.103356890459364
aa(lp4583
I2433768
aF3.7289879931389365
aa(lp4584
I2433978
aF3.01010101010101
aa(lp4585
I2434527
aF2.497536945812808
aa(lp4586
I2434632
aF2.9408602150537635
aa(lp4587
I2437021
aF3.9790794979079496
aa(lp4588
I2438141
aF3.4434782608695653
aa(lp4589
I2438440
aF3.969479353680431
aa(lp4590
I2438449
aF4.2504
aa(lp4591
I2438621
aF3.562162162162162
aa(lp4592
I2439493
aF1.204576869912456
aa(lp4593
I2439795
aF3.321985815602837
aa(lp4594
I2440182
aF3.5520446096654275
aa(lp4595
I2440242
aF3.3297872340425534
aa(lp4596
I2440605
aF3.8074766355140186
aa(lp4597
I2441692
aF3.111111111111111
aa(lp4598
I2442028
aF3.6623376623376624
aa(lp4599
I2442131
aF3.4003496503496504
aa(lp4600
I2442597
aF2.9576719576719577
aa(lp4601
I2442646
aF3.463265306122449
aa(lp4602
I2442925
aF4.310855263157895
aa(lp4603
I2444202
aF3.9651162790697674
aa(lp4604
I2444240
aF3.0844875346260388
aa(lp4605
I2445266
aF3.5016447368421053
aa(lp4606
I2445470
aF3.949074074074074
aa(lp4607
I2445689
aF3.8241379310344827
aa(lp4608
I2446246
aF3.004777070063694
aa(lp4609
I2446249
aF3.2645290581162323
aa(lp4610
I2446344
aF2.8771929824561404
aa(lp4611
I2446442
aF4.247328244274809
aa(lp4612
I2446506
aF3.371007371007371
aa(lp4613
I2447861
aF4.039568345323741
aa(lp4614
I2449001
aF3.308270676691729
aa(lp4615
I2449919
aF3.4306306306306307
aa(lp4616
I2450433
aF3.1763766959297683
aa(lp4617
I2450534
aF3.764499121265378
aa(lp4618
I2450942
aF3.0455026455026455
aa(lp4619
I2451020
aF3.2967651195499297
aa(lp4620
I2451907
aF3.1783333333333332
aa(lp4621
I2452132
aF3.1761978361669243
aa(lp4622
I2452430
aF3.825675675675676
aa(lp4623
I2452906
aF4.406148867313916
aa(lp4624
I2455107
aF3.3917525773195876
aa(lp4625
I2455281
aF2.844494892167991
aa(lp4626
I2455340
aF2.310861423220974
aa(lp4627
I2456635
aF3.3923357664233578
aa(lp4628
I2457095
aF2.4017558528428093
aa(lp4629
I2457240
aF3.9384615384615387
aa(lp4630
I2457720
aF3.8573099415204677
aa(lp4631
I2458372
aF4.0041322314049586
aa(lp4632
I2459229
aF3.2667660208643814
aa(lp4633
I2459251
aF3.593698175787728
aa(lp4634
I2460025
aF3.433644859813084
aa(lp4635
I2460347
aF1.429662635264163
aa(lp4636
I2461433
aF3.064655172413793
aa(lp4637
I2461508
aF3.7796052631578947
aa(lp4638
I2462919
aF3.672158154859967
aa(lp4639
I2463441
aF4.055343511450381
aa(lp4640
I2463759
aF3.1747765640516383
aa(lp4641
I2463816
aF3.0581583198707594
aa(lp4642
I2464081
aF4.345050878815911
aa(lp4643
I2464431
aF4.093862815884476
aa(lp4644
I2465236
aF2.97710843373494
aa(lp4645
I2465288
aF4.412772585669782
aa(lp4646
I2465337
aF3.8369565217391304
aa(lp4647
I2465894
aF3.1669150521609537
aa(lp4648
I2466682
aF3.6499372647427855
aa(lp4649
I2466899
aF3.148802017654477
aa(lp4650
I2467784
aF3.1066666666666665
aa(lp4651
I2468305
aF2.754120879120879
aa(lp4652
I2468830
aF2.9704301075268815
aa(lp4653
I2468881
aF2.902975420439845
aa(lp4654
I2469190
aF3.0456553755522826
aa(lp4655
I2469479
aF3.7292263610315186
aa(lp4656
I2470021
aF3.0785185185185187
aa(lp4657
I2471527
aF3.597972972972973
aa(lp4658
I2472066
aF3.2373983739837398
aa(lp4659
I2472537
aF3.5287539936102235
aa(lp4660
I2472638
aF3.7897990726429676
aa(lp4661
I2472640
aF3.3034883720930233
aa(lp4662
I2472682
aF3.5176304654442876
aa(lp4663
I2473261
aF3.442244224422442
aa(lp4664
I2473345
aF3.789473684210526
aa(lp4665
I2474624
aF3.1463414634146343
aa(lp4666
I2474804
aF4.876122082585279
aa(lp4667
I2475820
aF3.4806138933764137
aa(lp4668
I2477588
aF3.8976109215017063
aa(lp4669
I2479320
aF2.6370558375634516
aa(lp4670
I2480287
aF3.296671490593343
aa(lp4671
I2481491
aF3.5425531914893615
aa(lp4672
I2481504
aF3.2647783251231526
aa(lp4673
I2481827
aF3.470360824742268
aa(lp4674
I2482384
aF3.2195121951219514
aa(lp4675
I2482502
aF3.3997134670487106
aa(lp4676
I2482738
aF3.7736185383244205
aa(lp4677
I2482831
aF3.4840055632823366
aa(lp4678
I2483371
aF2.995475113122172
aa(lp4679
I2484944
aF3.032888888888889
aa(lp4680
I2485642
aF3.6942934782608696
aa(lp4681
I2485865
aF3.970684039087948
aa(lp4682
I2487127
aF1.6406649616368287
aa(lp4683
I2487603
aF3.4430955993930197
aa(lp4684
I2487809
aF3.255731922398589
aa(lp4685
I2487901
aF3.1407307171853858
aa(lp4686
I2487916
aF4.115332428765265
aa(lp4687
I2488357
aF3.721285140562249
aa(lp4688
I2489545
aF3.190909090909091
aa(lp4689
I2490049
aF3.1976149914821126
aa(lp4690
I2490423
aF3.2089285714285714
aa(lp4691
I2490507
aF3.9743589743589745
aa(lp4692
I2490731
aF4.379310344827586
aa(lp4693
I2491366
aF3.4017241379310343
aa(lp4694
I2491575
aF3.0658783783783785
aa(lp4695
I2491620
aF3.4348837209302325
aa(lp4696
I2492154
aF3.347272727272727
aa(lp4697
I2492392
aF2.5196451204055768
aa(lp4698
I2492695
aF3.65375
aa(lp4699
I2494071
aF3.748361730013106
aa(lp4700
I2494753
aF3.443014705882353
aa(lp4701
I2495043
aF3.9532085561497325
aa(lp4702
I2495253
aF3.2342064714946073
aa(lp4703
I2495474
aF3.6473859844271415
aa(lp4704
I2495584
aF3.569458128078818
aa(lp4705
I2496042
aF4.060080106809079
aa(lp4706
I2496479
aF3.6887905604719764
aa(lp4707
I2496492
aF3.1904761904761907
aa(lp4708
I2496628
aF3.5186915887850465
aa(lp4709
I2496874
aF3.5242369838420107
aa(lp4710
I2497577
aF3.084468664850136
aa(lp4711
I2497991
aF2.957816377171216
aa(lp4712
I2498427
aF3.478114478114478
aa(lp4713
I2499019
aF2.4458259325044405
aa(lp4714
I2499884
aF2.7720254314259765
aa(lp4715
I2501912
aF3.863782051282051
aa(lp4716
I2502112
aF2.9611650485436893
aa(lp4717
I2502145
aF3.7857142857142856
aa(lp4718
I2502336
aF4.346218487394958
aa(lp4719
I2502462
aF2.6138279932546373
aa(lp4720
I2502736
aF2.857404021937843
aa(lp4721
I2503230
aF2.9609984399375975
aa(lp4722
I2503583
aF3.604240282685512
aa(lp4723
I2503887
aF3.953125
aa(lp4724
I2504147
aF3.425414364640884
aa(lp4725
I2506564
aF3.149908592321755
aa(lp4726
I2507459
aF3.025817555938038
aa(lp4727
I2508312
aF2.6863309352517986
aa(lp4728
I2508565
aF3.370139968895801
aa(lp4729
I2509048
aF3.627954779033916
aa(lp4730
I2509293
aF2.8359375
aa(lp4731
I2509588
aF3.6136363636363638
aa(lp4732
I2509644
aF3.7444444444444445
aa(lp4733
I2509695
aF3.1010273972602738
aa(lp4734
I2509976
aF3.4949928469241773
aa(lp4735
I2510054
aF3.277586206896552
aa(lp4736
I2510551
aF3.4663120567375887
aa(lp4737
I2511278
aF3.7996011964107677
aa(lp4738
I2511730
aF3.3406408094435074
aa(lp4739
I2512128
aF3.0638297872340425
aa(lp4740
I2512235
aF3.0757211538461537
aa(lp4741
I2512828
aF2.624516129032258
aa(lp4742
I2513621
aF3.6159090909090907
aa(lp4743
I2513873
aF3.628501827040195
aa(lp4744
I2514777
aF2.9878234398782344
aa(lp4745
I2515047
aF3.005366726296959
aa(lp4746
I2515276
aF3.5764499121265376
aa(lp4747
I2516156
aF3.808176100628931
aa(lp4748
I2516525
aF4.569060773480663
aa(lp4749
I2518947
aF2.8213866039952995
aa(lp4750
I2519299
aF2.99075500770416
aa(lp4751
I2519310
aF3.5285913528591353
aa(lp4752
I2519865
aF4.041052631578947
aa(lp4753
I2520364
aF3.2918088737201363
aa(lp4754
I2520506
aF2.8855250709555347
aa(lp4755
I2520513
aF3.5491679273827534
aa(lp4756
I2520834
aF2.912878787878788
aa(lp4757
I2520933
aF3.0287648054145517
aa(lp4758
I2521051
aF4.231741573033708
aa(lp4759
I2521955
aF4.11372064276885
aa(lp4760
I2521994
aF3.3668261562998407
aa(lp4761
I2522946
aF3.259136212624585
aa(lp4762
I2523231
aF3.8966666666666665
aa(lp4763
I2523426
aF3.2005785920925747
aa(lp4764
I2523435
aF3.6308943089430894
aa(lp4765
I2523912
aF3.0146103896103895
aa(lp4766
I2524669
aF3.088443396226415
aa(lp4767
I2524708
aF3.172248803827751
aa(lp4768
I2525160
aF4.169811320754717
aa(lp4769
I2525542
aF3.743161094224924
aa(lp4770
I2526309
aF3.547202797202797
aa(lp4771
I2526414
aF3.635574837310195
aa(lp4772
I2528590
aF3.435772357723577
aa(lp4773
I2529630
aF2.913256955810147
aa(lp4774
I2530108
aF3.5121951219512195
aa(lp4775
I2531111
aF3.3846153846153846
aa(lp4776
I2531844
aF3.7473684210526317
aa(lp4777
I2532100
aF3.355475763016158
aa(lp4778
I2533480
aF3.3419117647058822
aa(lp4779
I2534061
aF2.114056224899598
aa(lp4780
I2534532
aF3.357034795763994
aa(lp4781
I2534832
aF3.9114285714285715
aa(lp4782
I2535052
aF3.2479185938945423
aa(lp4783
I2535229
aF4.036262203626221
aa(lp4784
I2535238
aF2.770979020979021
aa(lp4785
I2535512
aF3.4445554445554447
aa(lp4786
I2535586
aF4.235294117647059
aa(lp4787
I2536028
aF3.4731182795698925
aa(lp4788
I2536114
aF3.686164229471316
aa(lp4789
I2536547
aF2.9128540305010895
aa(lp4790
I2536943
aF3.2355555555555555
aa(lp4791
I2537543
aF2.778669724770642
aa(lp4792
I2538506
aF2.522673031026253
aa(lp4793
I2538567
aF3.346307385229541
aa(lp4794
I2538608
aF2.993299832495812
aa(lp4795
I2539101
aF3.0985401459854014
aa(lp4796
I2539243
aF3.4953703703703702
aa(lp4797
I2539735
aF3.6024423337856173
aa(lp4798
I2540263
aF3.994949494949495
aa(lp4799
I2540684
aF3.5280528052805282
aa(lp4800
I2541025
aF1.9100642398286938
aa(lp4801
I2541385
aF3.9723101265822787
aa(lp4802
I2541939
aF3.115702479338843
aa(lp4803
I2542967
aF3.5214285714285714
aa(lp4804
I2543231
aF3.353159851301115
aa(lp4805
I2543978
aF3.398576512455516
aa(lp4806
I2545618
aF3.171171171171171
aa(lp4807
I2545730
aF3.5536663124335814
aa(lp4808
I2546942
aF3.2688311688311686
aa(lp4809
I2547219
aF3.230769230769231
aa(lp4810
I2548453
aF4.081566068515498
aa(lp4811
I2548965
aF3.5130568356374807
aa(lp4812
I2549156
aF3.3867120954003407
aa(lp4813
I2549238
aF2.7673325499412456
aa(lp4814
I2549746
aF2.9650735294117645
aa(lp4815
I2550095
aF2.9550949913644216
aa(lp4816
I2550101
aF3.108499095840868
aa(lp4817
I2550324
aF3.211287988422576
aa(lp4818
I2550506
aF3.010330578512397
aa(lp4819
I2550711
aF3.289285714285714
aa(lp4820
I2550838
aF3.2034428794992174
aa(lp4821
I2551641
aF3.1605758582502768
aa(lp4822
I2551686
aF3.907180385288967
aa(lp4823
I2551764
aF3.4491682070240297
aa(lp4824
I2552047
aF4.831521739130435
aa(lp4825
I2552315
aF3.200477326968974
aa(lp4826
I2552319
aF2.7493333333333334
aa(lp4827
I2553056
aF3.4928909952606637
aa(lp4828
I2554035
aF2.5221445221445222
aa(lp4829
I2554745
aF3.0278662420382165
aa(lp4830
I2554942
aF3.6538461538461537
aa(lp4831
I2555055
aF3.7228915662650603
aa(lp4832
I2555614
aF4.672638436482084
aa(lp4833
I2556305
aF3.043838862559242
aa(lp4834
I2556321
aF3.9773635153129163
aa(lp4835
I2556523
aF4.7037617554858935
aa(lp4836
I2556552
aF3.1151202749140894
aa(lp4837
I2557152
aF3.531954887218045
aa(lp4838
I2557296
aF3.1140495867768596
aa(lp4839
I2557491
aF3.9163346613545817
aa(lp4840
I2557596
aF2.978142076502732
aa(lp4841
I2557710
aF3.3086876155268024
aa(lp4842
I2559157
aF3.8388214904679376
aa(lp4843
I2559537
aF2.6362126245847177
aa(lp4844
I2560469
aF4.04920913884007
aa(lp4845
I2561713
aF3.287741935483871
aa(lp4846
I2562859
aF3.236331569664903
aa(lp4847
I2562900
aF3.7318840579710146
aa(lp4848
I2563498
aF4.491582491582491
aa(lp4849
I2565354
aF3.409582689335394
aa(lp4850
I2565719
aF3.49746192893401
aa(lp4851
I2566515
aF2.665395614871306
aa(lp4852
I2567935
aF3.5691489361702127
aa(lp4853
I2568738
aF3.4896907216494846
aa(lp4854
I2568756
aF3.3912280701754387
aa(lp4855
I2568908
aF3.0255474452554743
aa(lp4856
I2569369
aF3.512455516014235
aa(lp4857
I2570444
aF2.9073825503355706
aa(lp4858
I2571175
aF3.626126126126126
aa(lp4859
I2572690
aF3.254335260115607
aa(lp4860
I2572942
aF3.606741573033708
aa(lp4861
I2573509
aF3.518032786885246
aa(lp4862
I2573624
aF3.061433447098976
aa(lp4863
I2573701
aF2.9292035398230087
aa(lp4864
I2574126
aF3.5344827586206895
aa(lp4865
I2575399
aF3.383128295254833
aa(lp4866
I2576843
aF3.376829268292683
aa(lp4867
I2577467
aF3.9335604770017034
aa(lp4868
I2577867
aF2.297935103244838
aa(lp4869
I2577882
aF3.0463458110516934
aa(lp4870
I2578541
aF3.6469864698646988
aa(lp4871
I2578830
aF3.250965250965251
aa(lp4872
I2580072
aF3.3870541611624834
aa(lp4873
I2580353
aF3.7653997378768023
aa(lp4874
I2580792
aF2.9767441860465116
aa(lp4875
I2581488
aF3.1828153564899453
aa(lp4876
I2581672
aF3.574105621805792
aa(lp4877
I2582726
aF4.6722222222222225
aa(lp4878
I2583202
aF3.5735900962861074
aa(lp4879
I2583311
aF3.584516129032258
aa(lp4880
I2584252
aF3.2543153049482165
aa(lp4881
I2584676
aF3.045839210155148
aa(lp4882
I2584980
aF3.146393972012917
aa(lp4883
I2585513
aF3.3891797556719023
aa(lp4884
I2585641
aF3.915929203539823
aa(lp4885
I2587909
aF3.052264808362369
aa(lp4886
I2588107
aF3.6623853211009174
aa(lp4887
I2588416
aF3.6778523489932886
aa(lp4888
I2588510
aF3.709626093874304
aa(lp4889
I2588755
aF3.353102189781022
aa(lp4890
I2589029
aF3.2113821138211383
aa(lp4891
I2589121
aF4.084179970972424
aa(lp4892
I2590072
aF3.6730434782608694
aa(lp4893
I2590515
aF3.6009771986970684
aa(lp4894
I2590895
aF3.6419753086419755
aa(lp4895
I2592095
aF3.442622950819672
aa(lp4896
I2592591
aF3.789230769230769
aa(lp4897
I2593093
aF3.7883211678832116
aa(lp4898
I2593317
aF3.668411867364747
aa(lp4899
I2593441
aF2.6459909228441756
aa(lp4900
I2593882
aF2.4002677376171353
aa(lp4901
I2594995
aF3.6834319526627217
aa(lp4902
I2595156
aF3.4144
aa(lp4903
I2595310
aF4.513468013468014
aa(lp4904
I2595747
aF3.8341543513957306
aa(lp4905
I2595888
aF3.7664
aa(lp4906
I2596310
aF3.143859649122807
aa(lp4907
I2596383
aF2.7995049504950495
aa(lp4908
I2597335
aF3.3454231433506045
aa(lp4909
I2597802
aF2.929778933680104
aa(lp4910
I2598028
aF2.922235722964763
aa(lp4911
I2598647
aF2.84916864608076
aa(lp4912
I2599262
aF4.710857142857143
aa(lp4913
I2600558
aF3.7075913776944707
aa(lp4914
I2600868
aF2.869077306733167
aa(lp4915
I2600927
aF3.7669064748201437
aa(lp4916
I2601377
aF3.5078299776286355
aa(lp4917
I2602249
aF2.996732026143791
aa(lp4918
I2603059
aF3.3093415007656968
aa(lp4919
I2603700
aF3.6153846153846154
aa(lp4920
I2604057
aF3.380462724935733
aa(lp4921
I2604442
aF3.3
aa(lp4922
I2604473
aF3.9338983050847456
aa(lp4923
I2604824
aF3.9348837209302325
aa(lp4924
I2604976
aF2.8893129770992365
aa(lp4925
I2606685
aF3.4305084745762713
aa(lp4926
I2606799
aF2.7726884779516356
aa(lp4927
I2607155
aF1.6546391752577319
aa(lp4928
I2607300
aF3.0515826494724503
aa(lp4929
I2607433
aF3.530141843971631
aa(lp4930
I2608542
aF3.5058309037900877
aa(lp4931
I2609677
aF3.2036793692509855
aa(lp4932
I2609870
aF1.7416267942583732
aa(lp4933
I2610031
aF3.105015673981191
aa(lp4934
I2610157
aF2.722591362126246
aa(lp4935
I2610420
aF3.718430034129693
aa(lp4936
I2612104
aF3.7914438502673797
aa(lp4937
I2613898
aF2.858843537414966
aa(lp4938
I2613921
aF4.124783362218371
aa(lp4939
I2614527
aF3.143389199255121
aa(lp4940
I2617170
aF3.095833333333333
aa(lp4941
I2617574
aF3.196861626248217
aa(lp4942
I2619718
aF3.3709369024856595
aa(lp4943
I2620858
aF3.1572871572871573
aa(lp4944
I2621150
aF3.219672131147541
aa(lp4945
I2621201
aF3.075980392156863
aa(lp4946
I2621229
aF4.163543441226576
aa(lp4947
I2621962
aF3.8231631382316316
aa(lp4948
I2622843
aF3.607561929595828
aa(lp4949
I2623852
aF2.901863354037267
aa(lp4950
I2624159
aF3.70873786407767
aa(lp4951
I2625306
aF3.025735294117647
aa(lp4952
I2625420
aF2.352608168216741
aa(lp4953
I2626336
aF2.478969957081545
aa(lp4954
I2627190
aF3.1270236612702367
aa(lp4955
I2627394
aF3.7268518518518516
aa(lp4956
I2627800
aF3.0281293952180026
aa(lp4957
I2628763
aF3.8270799347471454
aa(lp4958
I2629195
aF2.825806451612903
aa(lp4959
I2629599
aF4.0012422360248445
aa(lp4960
I2629660
aF3.220740740740741
aa(lp4961
I2630337
aF3.6264940239043826
aa(lp4962
I2631815
aF3.012121212121212
aa(lp4963
I2631950
aF2.966053748231966
aa(lp4964
I2632868
aF2.4767225325884543
aa(lp4965
I2632990
aF3.714074074074074
aa(lp4966
I2633357
aF3.029585798816568
aa(lp4967
I2633486
aF3.0526315789473686
aa(lp4968
I2633545
aF3.1849865951742626
aa(lp4969
I2633797
aF3.8934280639431615
aa(lp4970
I2634074
aF3.1404958677685952
aa(lp4971
I2634182
aF3.6317567567567566
aa(lp4972
I2634348
aF3.187800963081862
aa(lp4973
I2634707
aF4.086838534599728
aa(lp4974
I2634967
aF1.6278388278388278
aa(lp4975
I2636012
aF3.2628865979381443
aa(lp4976
I2636378
aF3.949675324675325
aa(lp4977
I2636478
aF3.580387685290764
aa(lp4978
I2636654
aF3.048695652173913
aa(lp4979
I2636781
aF3.790566037735849
aa(lp4980
I2637187
aF3.5027223230490017
aa(lp4981
I2637755
aF3.1027496382054993
aa(lp4982
I2637886
aF3.441008018327606
aa(lp4983
I2640203
aF3.1101836393989983
aa(lp4984
I2640278
aF3.3979591836734695
aa(lp4985
I2640550
aF3.4814410480349345
aa(lp4986
I2640760
aF3.1699882766705745
aa(lp4987
I2640999
aF1.1363636363636365
aa(lp4988
I2641559
aF3.7775735294117645
aa(lp4989
I2641668
aF2.774145616641902
aa(lp4990
I2643193
aF3.6956521739130435
aa(lp4991
I2644945
aF3.545299145299145
aa(lp4992
I2644964
aF3.367069486404834
aa(lp4993
I2645476
aF3.1443768996960486
aa(lp4994
I2645579
aF3.7965284474445515
aa(lp4995
I2646347
aF3.4960629921259843
aa(lp4996
I2646574
aF3.117052023121387
aa(lp4997
I2646634
aF3.5816666666666666
aa(lp4998
I2647197
aF3.5545571245186136
aa(lp4999
I2647888
aF3.633070866141732
aa(lp5000
I2648589
aF3.0631578947368423
aa.