(lp0
(I305344
I17653
tp1
a(I387418
I17436
tp2
a(I2439493
I16565
tp3
a(I1664010
I15813
tp4
a(I2118461
I14831
tp5
a(I1461435
I9822
tp6
a(I1639792
I9767
tp7
a(I1314869
I9740
tp8
a(I2606799
I9064
tp9
a(I1932594
I8880
tp10
a(I2056022
I8387
tp11
a(I1114324
I8322
tp12
a(I752642
I7481
tp13
a(I491531
I7257
tp14
a(I1663888
I7080
tp15
a(I727242
I6997
tp16
a(I1403217
I6844
tp17
a(I1473980
I6790
tp18
a(I798296
I6740
tp19
a(I716173
I6736
tp20
a(I1852040
I6719
tp21
a(I507603
I6703
tp22
a(I1001129
I6684
tp23
a(I1792741
I6349
tp24
a(I2625420
I6209
tp25
a(I2457095
I6169
tp26
a(I303948
I6074
tp27
a(I2147527
I5996
tp28
a(I2143500
I5940
tp29
a(I16272
I5900
tp30
a(I1806515
I5867
tp31
a(I1299887
I5841
tp32
a(I2238060
I5827
tp33
a(I1061195
I5748
tp34
a(I57633
I5736
tp35
a(I1037245
I5689
tp36
a(I322009
I5611
tp37
a(I1710658
I5533
tp38
a(I1927580
I5413
tp39
a(I2237185
I5249
tp40
a(I682963
I5150
tp41
a(I1673185
I5144
tp42
a(I794999
I5099
tp43
a(I2291306
I4953
tp44
a(I1977959
I4947
tp45
a(I1784150
I4926
tp46
a(I525356
I4913
tp47
a(I1300759
I4797
tp48
a(I786312
I4762
tp49
a(I1110156
I4761
tp50
a(I1227322
I4752
tp51
a(I636262
I4748
tp52
a(I1298511
I4731
tp53
a(I2083367
I4729
tp54
a(I530789
I4726
tp55
a(I2062350
I4679
tp56
a(I1935793
I4659
tp57
a(I1028463
I4656
tp58
a(I789014
I4579
tp59
a(I1105029
I4575
tp60
a(I504620
I4558
tp61
a(I2537543
I4475
tp62
a(I184705
I4436
tp63
a(I1602153
I4415
tp64
a(I1902838
I4407
tp65
a(I3321
I4395
tp66
a(I2256485
I4370
tp67
a(I2040859
I4343
tp68
a(I1612901
I4333
tp69
a(I952156
I4327
tp70
a(I1876520
I4327
tp71
a(I1272379
I4288
tp72
a(I2061495
I4278
tp73
a(I1707198
I4183
tp74
a(I818752
I4179
tp75
a(I319058
I4170
tp76
a(I2315012
I4127
tp77
a(I1470123
I4124
tp78
a(I1519378
I4108
tp79
a(I862596
I4100
tp80
a(I722591
I4098
tp81
a(I595778
I4069
tp82
a(I647979
I4049
tp83
a(I2460347
I4026
tp84
a(I1819462
I4017
tp85
a(I2102030
I4017
tp86
a(I555528
I4009
tp87
a(I2176465
I4007
tp88
a(I447759
I4004
tp89
a(I238740
I3987
tp90
a(I341649
I3983
tp91
a(I2602249
I3974
tp92
a(I1903324
I3953
tp93
a(I2150746
I3929
tp94
a(I769702
I3877
tp95
a(I147386
I3868
tp96
a(I1984086
I3851
tp97
a(I1563935
I3846
tp98
a(I402266
I3826
tp99
a(I1984315
I3813
tp100
a(I71594
I3803
tp101
a(I1516350
I3749
tp102
a(I2297136
I3734
tp103
a(I1509395
I3722
tp104
a(I1029163
I3720
tp105
a(I1166912
I3702
tp106
a(I235789
I3687
tp107
a(I74441
I3682
tp108
a(I2327743
I3676
tp109
a(I789969
I3671
tp110
a(I2485642
I3662
tp111
a(I1205174
I3654
tp112
a(I397212
I3648
tp113
a(I1233297
I3640
tp114
a(I1559083
I3617
tp115
a(I1033930
I3572
tp116
a(I1146000
I3571
tp117
a(I394895
I3570
tp118
a(I2584676
I3568
tp119
a(I1431356
I3557
tp120
a(I2157060
I3534
tp121
a(I2248080
I3523
tp122
a(I507094
I3513
tp123
a(I1452127
I3510
tp124
a(I743633
I3493
tp125
a(I1777406
I3480
tp126
a(I638020
I3473
tp127
a(I2255880
I3470
tp128
a(I2634967
I3465
tp129
a(I2220732
I3461
tp130
a(I1557557
I3454
tp131
a(I2119007
I3449
tp132
a(I121182
I3444
tp133
a(I316155
I3442
tp134
a(I411290
I3435
tp135
a(I844028
I3432
tp136
a(I1139570
I3409
tp137
a(I873713
I3406
tp138
a(I1268699
I3399
tp139
a(I958687
I3393
tp140
a(I2225743
I3391
tp141
a(I684876
I3383
tp142
a(I166041
I3379
tp143
a(I716874
I3376
tp144
a(I929308
I3373
tp145
a(I825353
I3372
tp146
a(I2514777
I3365
tp147
a(I603277
I3350
tp148
a(I908205
I3348
tp149
a(I1257336
I3346
tp150
a(I1532336
I3340
tp151
a(I1317671
I3335
tp152
a(I2035299
I3333
tp153
a(I2284890
I3309
tp154
a(I2604976
I3306
tp155
a(I2541385
I3301
tp156
a(I2375962
I3298
tp157
a(I49890
I3295
tp158
a(I1370564
I3293
tp159
a(I2519299
I3293
tp160
a(I864172
I3279
tp161
a(I178860
I3277
tp162
a(I1001928
I3268
tp163
a(I230112
I3265
tp164
a(I1556831
I3262
tp165
a(I2260832
I3259
tp166
a(I159159
I3256
tp167
a(I306569
I3256
tp168
a(I1978089
I3256
tp169
a(I518137
I3242
tp170
a(I386947
I3240
tp171
a(I199257
I3233
tp172
a(I1301819
I3231
tp173
a(I2534061
I3231
tp174
a(I2089599
I3229
tp175
a(I1494683
I3228
tp176
a(I883478
I3222
tp177
a(I1988735
I3219
tp178
a(I188613
I3216
tp179
a(I1986034
I3214
tp180
a(I2554745
I3208
tp181
a(I2299661
I3207
tp182
a(I2588510
I3207
tp183
a(I1374197
I3187
tp184
a(I2266083
I3176
tp185
a(I1515355
I3172
tp186
a(I237263
I3171
tp187
a(I732363
I3171
tp188
a(I411705
I3170
tp189
a(I2438449
I3165
tp190
a(I461075
I3164
tp191
a(I629389
I3164
tp192
a(I2538506
I3158
tp193
a(I78404
I3153
tp194
a(I2320697
I3151
tp195
a(I1107588
I3144
tp196
a(I2475820
I3137
tp197
a(I2450433
I3134
tp198
a(I901520
I3132
tp199
a(I2018894
I3127
tp200
a(I952063
I3122
tp201
a(I1184498
I3122
tp202
a(I608234
I3118
tp203
a(I655385
I3118
tp204
a(I2329026
I3111
tp205
a(I684531
I3108
tp206
a(I1757328
I3101
tp207
a(I1771252
I3099
tp208
a(I1875549
I3099
tp209
a(I2488357
I3098
tp210
a(I691808
I3094
tp211
a(I1002509
I3091
tp212
a(I157667
I3090
tp213
a(I320314
I3085
tp214
a(I2626336
I3079
tp215
a(I1872980
I3074
tp216
a(I2155681
I3069
tp217
a(I1934002
I3067
tp218
a(I1661344
I3066
tp219
a(I503235
I3062
tp220
a(I1026933
I3049
tp221
a(I1038880
I3044
tp222
a(I663118
I3030
tp223
a(I1567202
I3029
tp224
a(I1220170
I3025
tp225
a(I2099446
I3020
tp226
a(I1567970
I3013
tp227
a(I438340
I3012
tp228
a(I981753
I3009
tp229
a(I1907667
I3006
tp230
a(I1830000
I3003
tp231
a(I1092521
I2997
tp232
a(I2268573
I2997
tp233
a(I243612
I2992
tp234
a(I2389367
I2990
tp235
a(I101807
I2983
tp236
a(I1333
I2982
tp237
a(I307427
I2982
tp238
a(I1086481
I2982
tp239
a(I1190829
I2982
tp240
a(I1116080
I2981
tp241
a(I2207031
I2976
tp242
a(I620010
I2973
tp243
a(I524142
I2972
tp244
a(I837133
I2969
tp245
a(I923631
I2966
tp246
a(I2479320
I2966
tp247
a(I1117152
I2964
tp248
a(I1627955
I2962
tp249
a(I835265
I2953
tp250
a(I1737149
I2953
tp251
a(I642384
I2951
tp252
a(I75976
I2946
tp253
a(I329958
I2946
tp254
a(I1816884
I2941
tp255
a(I825819
I2939
tp256
a(I574834
I2933
tp257
a(I1309838
I2933
tp258
a(I1380915
I2919
tp259
a(I221926
I2917
tp260
a(I11043
I2911
tp261
a(I594196
I2901
tp262
a(I2194079
I2895
tp263
a(I1045879
I2892
tp264
a(I1582952
I2890
tp265
a(I1569593
I2884
tp266
a(I2147714
I2884
tp267
a(I21823
I2883
tp268
a(I1949871
I2883
tp269
a(I2218735
I2882
tp270
a(I2552319
I2881
tp271
a(I1030857
I2880
tp272
a(I1745107
I2880
tp273
a(I1945809
I2880
tp274
a(I2217731
I2880
tp275
a(I2430041
I2879
tp276
a(I2433610
I2879
tp277
a(I1913414
I2875
tp278
a(I2484944
I2871
tp279
a(I2499884
I2871
tp280
a(I2256731
I2867
tp281
a(I1818059
I2862
tp282
a(I2029979
I2861
tp283
a(I893014
I2857
tp284
a(I1616870
I2857
tp285
a(I1179117
I2856
tp286
a(I2070798
I2855
tp287
a(I2360906
I2853
tp288
a(I1037705
I2852
tp289
a(I576990
I2849
tp290
a(I1072312
I2849
tp291
a(I2464081
I2838
tp292
a(I1480900
I2837
tp293
a(I1704223
I2834
tp294
a(I2404142
I2832
tp295
a(I2171187
I2831
tp296
a(I1629440
I2830
tp297
a(I651230
I2825
tp298
a(I2588755
I2818
tp299
a(I1660348
I2816
tp300
a(I462171
I2814
tp301
a(I998236
I2814
tp302
a(I1224299
I2807
tp303
a(I1999176
I2806
tp304
a(I76196
I2805
tp305
a(I1995860
I2803
tp306
a(I1528604
I2800
tp307
a(I10268
I2799
tp308
a(I1561134
I2797
tp309
a(I414536
I2794
tp310
a(I2127108
I2787
tp311
a(I1933317
I2785
tp312
a(I1545709
I2779
tp313
a(I383451
I2778
tp314
a(I2429294
I2772
tp315
a(I1420308
I2769
tp316
a(I356615
I2766
tp317
a(I408457
I2765
tp318
a(I407037
I2762
tp319
a(I325073
I2759
tp320
a(I2494753
I2758
tp321
a(I2282041
I2757
tp322
a(I1865249
I2756
tp323
a(I302344
I2751
tp324
a(I2535052
I2751
tp325
a(I57186
I2748
tp326
a(I429260
I2746
tp327
a(I2600558
I2743
tp328
a(I1238184
I2741
tp329
a(I2041854
I2741
tp330
a(I1357209
I2740
tp331
a(I753107
I2735
tp332
a(I1640334
I2735
tp333
a(I1684232
I2735
tp334
a(I578191
I2731
tp335
a(I601317
I2729
tp336
a(I1643146
I2729
tp337
a(I1123175
I2727
tp338
a(I504440
I2726
tp339
a(I775020
I2726
tp340
a(I1123618
I2725
tp341
a(I199435
I2723
tp342
a(I830370
I2722
tp343
a(I2124351
I2722
tp344
a(I340479
I2721
tp345
a(I1189269
I2721
tp346
a(I1334853
I2721
tp347
a(I2254751
I2718
tp348
a(I1998055
I2716
tp349
a(I332698
I2715
tp350
a(I364749
I2715
tp351
a(I754161
I2715
tp352
a(I1284016
I2714
tp353
a(I589682
I2712
tp354
a(I670488
I2712
tp355
a(I831103
I2708
tp356
a(I1762695
I2703
tp357
a(I1684416
I2699
tp358
a(I240923
I2697
tp359
a(I122197
I2696
tp360
a(I1645904
I2695
tp361
a(I257622
I2690
tp362
a(I549534
I2688
tp363
a(I1143750
I2686
tp364
a(I1744889
I2686
tp365
a(I1859573
I2685
tp366
a(I2520506
I2685
tp367
a(I575714
I2684
tp368
a(I277837
I2682
tp369
a(I1979820
I2680
tp370
a(I66109
I2679
tp371
a(I1282217
I2676
tp372
a(I860520
I2672
tp373
a(I2566515
I2669
tp374
a(I400440
I2665
tp375
a(I2203225
I2663
tp376
a(I2398923
I2663
tp377
a(I285174
I2662
tp378
a(I1042938
I2662
tp379
a(I1310425
I2662
tp380
a(I752853
I2654
tp381
a(I1495111
I2652
tp382
a(I2523426
I2650
tp383
a(I2232563
I2649
tp384
a(I2339135
I2649
tp385
a(I272840
I2648
tp386
a(I2185614
I2648
tp387
a(I1279360
I2647
tp388
a(I2291170
I2639
tp389
a(I10374
I2637
tp390
a(I1257454
I2636
tp391
a(I1452669
I2636
tp392
a(I2645579
I2636
tp393
a(I349572
I2634
tp394
a(I624388
I2632
tp395
a(I823802
I2632
tp396
a(I16273
I2630
tp397
a(I111033
I2629
tp398
a(I327122
I2628
tp399
a(I97893
I2622
tp400
a(I467182
I2622
tp401
a(I2463759
I2622
tp402
a(I2043784
I2620
tp403
a(I1675680
I2617
tp404
a(I1072585
I2615
tp405
a(I490057
I2613
tp406
a(I1156852
I2611
tp407
a(I929407
I2609
tp408
a(I1181550
I2609
tp409
a(I151821
I2608
tp410
a(I2226510
I2608
tp411
a(I71743
I2607
tp412
a(I595870
I2606
tp413
a(I1548363
I2606
tp414
a(I1223912
I2604
tp415
a(I74320
I2603
tp416
a(I53694
I2602
tp417
a(I170248
I2602
tp418
a(I717542
I2602
tp419
a(I1229628
I2601
tp420
a(I954742
I2593
tp421
a(I2019240
I2593
tp422
a(I491513
I2591
tp423
a(I922551
I2591
tp424
a(I1484157
I2590
tp425
a(I877394
I2589
tp426
a(I2029858
I2588
tp427
a(I110938
I2587
tp428
a(I380505
I2585
tp429
a(I998502
I2585
tp430
a(I2101288
I2583
tp431
a(I1490538
I2582
tp432
a(I155342
I2581
tp433
a(I399971
I2581
tp434
a(I946380
I2581
tp435
a(I165247
I2578
tp436
a(I1007577
I2576
tp437
a(I1829748
I2576
tp438
a(I2538567
I2575
tp439
a(I686510
I2574
tp440
a(I1558286
I2574
tp441
a(I151004
I2571
tp442
a(I1650301
I2571
tp443
a(I1957786
I2570
tp444
a(I326356
I2569
tp445
a(I785992
I2568
tp446
a(I200255
I2564
tp447
a(I2366462
I2564
tp448
a(I1800701
I2563
tp449
a(I2446249
I2563
tp450
a(I1662714
I2562
tp451
a(I1287892
I2561
tp452
a(I499257
I2560
tp453
a(I2630337
I2560
tp454
a(I27061
I2559
tp455
a(I12812
I2558
tp456
a(I206893
I2556
tp457
a(I125296
I2555
tp458
a(I706832
I2555
tp459
a(I962019
I2551
tp460
a(I1106241
I2549
tp461
a(I826696
I2548
tp462
a(I1887657
I2546
tp463
a(I768876
I2545
tp464
a(I1785209
I2545
tp465
a(I620741
I2544
tp466
a(I1741099
I2541
tp467
a(I2385435
I2539
tp468
a(I1420020
I2538
tp469
a(I2401585
I2537
tp470
a(I2550506
I2531
tp471
a(I478176
I2528
tp472
a(I2535512
I2527
tp473
a(I2511278
I2523
tp474
a(I1255703
I2522
tp475
a(I832780
I2521
tp476
a(I2354740
I2521
tp477
a(I1788346
I2520
tp478
a(I2417531
I2518
tp479
a(I452667
I2514
tp480
a(I2251582
I2514
tp481
a(I1878798
I2513
tp482
a(I2209351
I2513
tp483
a(I2299951
I2510
tp484
a(I1147641
I2509
tp485
a(I361886
I2508
tp486
a(I835353
I2506
tp487
a(I1398256
I2504
tp488
a(I428688
I2503
tp489
a(I310887
I2500
tp490
a(I2012897
I2500
tp491
a(I187896
I2499
tp492
a(I2049734
I2498
tp493
a(I2250323
I2496
tp494
a(I1519692
I2495
tp495
a(I241634
I2494
tp496
a(I2509048
I2494
tp497
a(I1583631
I2493
tp498
a(I2328511
I2491
tp499
a(I753231
I2490
tp500
a.