(lp0
(I305344
I17653
tp1
a(I387418
I17436
tp2
a(I2439493
I16565
tp3
a(I1664010
I15813
tp4
a(I2118461
I14831
tp5
a(I1461435
I9822
tp6
a(I1639792
I9767
tp7
a(I1314869
I9740
tp8
a(I2606799
I9064
tp9
a(I1932594
I8880
tp10
a(I2056022
I8387
tp11
a(I1114324
I8322
tp12
a(I752642
I7481
tp13
a(I491531
I7257
tp14
a(I1663888
I7080
tp15
a(I727242
I6997
tp16
a(I1403217
I6844
tp17
a(I1473980
I6790
tp18
a(I798296
I6740
tp19
a(I716173
I6736
tp20
a(I1852040
I6719
tp21
a(I507603
I6703
tp22
a(I1001129
I6684
tp23
a(I1792741
I6349
tp24
a(I2625420
I6209
tp25
a(I2457095
I6169
tp26
a(I303948
I6074
tp27
a(I2147527
I5996
tp28
a(I2143500
I5940
tp29
a(I16272
I5900
tp30
a(I1806515
I5867
tp31
a(I1299887
I5841
tp32
a(I2238060
I5827
tp33
a(I1061195
I5748
tp34
a(I57633
I5736
tp35
a(I1037245
I5689
tp36
a(I322009
I5611
tp37
a(I1710658
I5533
tp38
a(I1927580
I5413
tp39
a(I2237185
I5249
tp40
a(I682963
I5150
tp41
a(I1673185
I5144
tp42
a(I794999
I5099
tp43
a(I2291306
I4953
tp44
a(I1977959
I4947
tp45
a(I1784150
I4926
tp46
a(I525356
I4913
tp47
a(I1300759
I4797
tp48
a(I786312
I4762
tp49
a(I1110156
I4761
tp50
a(I1227322
I4752
tp51
a(I636262
I4748
tp52
a(I1298511
I4731
tp53
a(I2083367
I4729
tp54
a(I530789
I4726
tp55
a(I2062350
I4679
tp56
a(I1935793
I4659
tp57
a(I1028463
I4656
tp58
a(I789014
I4579
tp59
a(I1105029
I4575
tp60
a(I504620
I4558
tp61
a(I2537543
I4475
tp62
a(I184705
I4436
tp63
a(I1602153
I4415
tp64
a(I1902838
I4407
tp65
a(I3321
I4395
tp66
a(I2256485
I4370
tp67
a(I2040859
I4343
tp68
a(I1612901
I4333
tp69
a(I952156
I4327
tp70
a(I1876520
I4327
tp71
a(I1272379
I4288
tp72
a(I2061495
I4278
tp73
a(I1707198
I4183
tp74
a(I818752
I4179
tp75
a(I319058
I4170
tp76
a(I2315012
I4127
tp77
a(I1470123
I4124
tp78
a(I1519378
I4108
tp79
a(I862596
I4100
tp80
a(I722591
I4098
tp81
a(I595778
I4069
tp82
a(I647979
I4049
tp83
a(I2460347
I4026
tp84
a(I1819462
I4017
tp85
a(I2102030
I4017
tp86
a(I555528
I4009
tp87
a(I2176465
I4007
tp88
a(I447759
I4004
tp89
a(I238740
I3987
tp90
a(I341649
I3983
tp91
a(I2602249
I3974
tp92
a(I1903324
I3953
tp93
a(I2150746
I3929
tp94
a(I769702
I3877
tp95
a(I147386
I3868
tp96
a(I1984086
I3851
tp97
a(I1563935
I3846
tp98
a(I402266
I3826
tp99
a(I1984315
I3813
tp100
a(I71594
I3803
tp101
a(I1516350
I3749
tp102
a(I2297136
I3734
tp103
a(I1509395
I3722
tp104
a(I1029163
I3720
tp105
a(I1166912
I3702
tp106
a(I235789
I3687
tp107
a(I74441
I3682
tp108
a(I2327743
I3676
tp109
a(I789969
I3671
tp110
a(I2485642
I3662
tp111
a(I1205174
I3654
tp112
a(I397212
I3648
tp113
a(I1233297
I3640
tp114
a(I1559083
I3617
tp115
a(I1033930
I3572
tp116
a(I1146000
I3571
tp117
a(I394895
I3570
tp118
a(I2584676
I3568
tp119
a(I1431356
I3557
tp120
a(I2157060
I3534
tp121
a(I2248080
I3523
tp122
a(I507094
I3513
tp123
a(I1452127
I3510
tp124
a(I743633
I3493
tp125
a(I1777406
I3480
tp126
a(I638020
I3473
tp127
a(I2255880
I3470
tp128
a(I2634967
I3465
tp129
a(I2220732
I3461
tp130
a(I1557557
I3454
tp131
a(I2119007
I3449
tp132
a(I121182
I3444
tp133
a(I316155
I3442
tp134
a(I411290
I3435
tp135
a(I844028
I3432
tp136
a(I1139570
I3409
tp137
a(I873713
I3406
tp138
a(I1268699
I3399
tp139
a(I958687
I3393
tp140
a(I2225743
I3391
tp141
a(I684876
I3383
tp142
a(I166041
I3379
tp143
a(I716874
I3376
tp144
a(I929308
I3373
tp145
a(I825353
I3372
tp146
a(I2514777
I3365
tp147
a(I603277
I3350
tp148
a(I908205
I3348
tp149
a(I1257336
I3346
tp150
a(I1532336
I3340
tp151
a(I1317671
I3335
tp152
a(I2035299
I3333
tp153
a(I2284890
I3309
tp154
a(I2604976
I3306
tp155
a(I2541385
I3301
tp156
a(I2375962
I3298
tp157
a(I49890
I3295
tp158
a(I1370564
I3293
tp159
a(I2519299
I3293
tp160
a(I864172
I3279
tp161
a(I178860
I3277
tp162
a(I1001928
I3268
tp163
a(I230112
I3265
tp164
a(I1556831
I3262
tp165
a(I2260832
I3259
tp166
a(I159159
I3256
tp167
a(I306569
I3256
tp168
a(I1978089
I3256
tp169
a(I518137
I3242
tp170
a(I386947
I3240
tp171
a(I199257
I3233
tp172
a(I1301819
I3231
tp173
a(I2534061
I3231
tp174
a(I2089599
I3229
tp175
a(I1494683
I3228
tp176
a(I883478
I3222
tp177
a(I1988735
I3219
tp178
a(I188613
I3216
tp179
a(I1986034
I3214
tp180
a(I2554745
I3208
tp181
a(I2299661
I3207
tp182
a(I2588510
I3207
tp183
a(I1374197
I3187
tp184
a(I2266083
I3176
tp185
a(I1515355
I3172
tp186
a(I237263
I3171
tp187
a(I732363
I3171
tp188
a(I411705
I3170
tp189
a(I2438449
I3165
tp190
a(I461075
I3164
tp191
a(I629389
I3164
tp192
a(I2538506
I3158
tp193
a(I78404
I3153
tp194
a(I2320697
I3151
tp195
a(I1107588
I3144
tp196
a(I2475820
I3137
tp197
a(I2450433
I3134
tp198
a(I901520
I3132
tp199
a(I2018894
I3127
tp200
a(I952063
I3122
tp201
a(I1184498
I3122
tp202
a(I608234
I3118
tp203
a(I655385
I3118
tp204
a(I2329026
I3111
tp205
a(I684531
I3108
tp206
a(I1757328
I3101
tp207
a(I1771252
I3099
tp208
a(I1875549
I3099
tp209
a(I2488357
I3098
tp210
a(I691808
I3094
tp211
a(I1002509
I3091
tp212
a(I157667
I3090
tp213
a(I320314
I3085
tp214
a(I2626336
I3079
tp215
a(I1872980
I3074
tp216
a(I2155681
I3069
tp217
a(I1934002
I3067
tp218
a(I1661344
I3066
tp219
a(I503235
I3062
tp220
a(I1026933
I3049
tp221
a(I1038880
I3044
tp222
a(I663118
I3030
tp223
a(I1567202
I3029
tp224
a(I1220170
I3025
tp225
a(I2099446
I3020
tp226
a(I1567970
I3013
tp227
a(I438340
I3012
tp228
a(I981753
I3009
tp229
a(I1907667
I3006
tp230
a(I1830000
I3003
tp231
a(I1092521
I2997
tp232
a(I2268573
I2997
tp233
a(I243612
I2992
tp234
a(I2389367
I2990
tp235
a(I101807
I2983
tp236
a(I1333
I2982
tp237
a(I307427
I2982
tp238
a(I1086481
I2982
tp239
a(I1190829
I2982
tp240
a(I1116080
I2981
tp241
a(I2207031
I2976
tp242
a(I620010
I2973
tp243
a(I524142
I2972
tp244
a(I837133
I2969
tp245
a(I923631
I2966
tp246
a(I2479320
I2966
tp247
a(I1117152
I2964
tp248
a(I1627955
I2962
tp249
a(I835265
I2953
tp250
a(I1737149
I2953
tp251
a(I642384
I2951
tp252
a(I75976
I2946
tp253
a(I329958
I2946
tp254
a(I1816884
I2941
tp255
a(I825819
I2939
tp256
a(I574834
I2933
tp257
a(I1309838
I2933
tp258
a(I1380915
I2919
tp259
a(I221926
I2917
tp260
a(I11043
I2911
tp261
a(I594196
I2901
tp262
a(I2194079
I2895
tp263
a(I1045879
I2892
tp264
a(I1582952
I2890
tp265
a(I1569593
I2884
tp266
a(I2147714
I2884
tp267
a(I21823
I2883
tp268
a(I1949871
I2883
tp269
a(I2218735
I2882
tp270
a(I2552319
I2881
tp271
a(I1030857
I2880
tp272
a(I1745107
I2880
tp273
a(I1945809
I2880
tp274
a(I2217731
I2880
tp275
a(I2430041
I2879
tp276
a(I2433610
I2879
tp277
a(I1913414
I2875
tp278
a(I2484944
I2871
tp279
a(I2499884
I2871
tp280
a(I2256731
I2867
tp281
a(I1818059
I2862
tp282
a(I2029979
I2861
tp283
a(I893014
I2857
tp284
a(I1616870
I2857
tp285
a(I1179117
I2856
tp286
a(I2070798
I2855
tp287
a(I2360906
I2853
tp288
a(I1037705
I2852
tp289
a(I576990
I2849
tp290
a(I1072312
I2849
tp291
a(I2464081
I2838
tp292
a(I1480900
I2837
tp293
a(I1704223
I2834
tp294
a(I2404142
I2832
tp295
a(I2171187
I2831
tp296
a(I1629440
I2830
tp297
a(I651230
I2825
tp298
a(I2588755
I2818
tp299
a(I1660348
I2816
tp300
a(I462171
I2814
tp301
a(I998236
I2814
tp302
a(I1224299
I2807
tp303
a(I1999176
I2806
tp304
a(I76196
I2805
tp305
a(I1995860
I2803
tp306
a(I1528604
I2800
tp307
a(I10268
I2799
tp308
a(I1561134
I2797
tp309
a(I414536
I2794
tp310
a(I2127108
I2787
tp311
a(I1933317
I2785
tp312
a(I1545709
I2779
tp313
a(I383451
I2778
tp314
a(I2429294
I2772
tp315
a(I1420308
I2769
tp316
a(I356615
I2766
tp317
a(I408457
I2765
tp318
a(I407037
I2762
tp319
a(I325073
I2759
tp320
a(I2494753
I2758
tp321
a(I2282041
I2757
tp322
a(I1865249
I2756
tp323
a(I302344
I2751
tp324
a(I2535052
I2751
tp325
a(I57186
I2748
tp326
a(I429260
I2746
tp327
a(I2600558
I2743
tp328
a(I1238184
I2741
tp329
a(I2041854
I2741
tp330
a(I1357209
I2740
tp331
a(I753107
I2735
tp332
a(I1640334
I2735
tp333
a(I1684232
I2735
tp334
a(I578191
I2731
tp335
a(I601317
I2729
tp336
a(I1643146
I2729
tp337
a(I1123175
I2727
tp338
a(I504440
I2726
tp339
a(I775020
I2726
tp340
a(I1123618
I2725
tp341
a(I199435
I2723
tp342
a(I830370
I2722
tp343
a(I2124351
I2722
tp344
a(I340479
I2721
tp345
a(I1189269
I2721
tp346
a(I1334853
I2721
tp347
a(I2254751
I2718
tp348
a(I1998055
I2716
tp349
a(I332698
I2715
tp350
a(I364749
I2715
tp351
a(I754161
I2715
tp352
a(I1284016
I2714
tp353
a(I589682
I2712
tp354
a(I670488
I2712
tp355
a(I831103
I2708
tp356
a(I1762695
I2703
tp357
a(I1684416
I2699
tp358
a(I240923
I2697
tp359
a(I122197
I2696
tp360
a(I1645904
I2695
tp361
a(I257622
I2690
tp362
a(I549534
I2688
tp363
a(I1143750
I2686
tp364
a(I1744889
I2686
tp365
a(I1859573
I2685
tp366
a(I2520506
I2685
tp367
a(I575714
I2684
tp368
a(I277837
I2682
tp369
a(I1979820
I2680
tp370
a(I66109
I2679
tp371
a(I1282217
I2676
tp372
a(I860520
I2672
tp373
a(I2566515
I2669
tp374
a(I400440
I2665
tp375
a(I2203225
I2663
tp376
a(I2398923
I2663
tp377
a(I285174
I2662
tp378
a(I1042938
I2662
tp379
a(I1310425
I2662
tp380
a(I752853
I2654
tp381
a(I1495111
I2652
tp382
a(I2523426
I2650
tp383
a(I2232563
I2649
tp384
a(I2339135
I2649
tp385
a(I272840
I2648
tp386
a(I2185614
I2648
tp387
a(I1279360
I2647
tp388
a(I2291170
I2639
tp389
a(I10374
I2637
tp390
a(I1257454
I2636
tp391
a(I1452669
I2636
tp392
a(I2645579
I2636
tp393
a(I349572
I2634
tp394
a(I624388
I2632
tp395
a(I823802
I2632
tp396
a(I16273
I2630
tp397
a(I111033
I2629
tp398
a(I327122
I2628
tp399
a(I97893
I2622
tp400
a(I467182
I2622
tp401
a(I2463759
I2622
tp402
a(I2043784
I2620
tp403
a(I1675680
I2617
tp404
a(I1072585
I2615
tp405
a(I490057
I2613
tp406
a(I1156852
I2611
tp407
a(I929407
I2609
tp408
a(I1181550
I2609
tp409
a(I151821
I2608
tp410
a(I2226510
I2608
tp411
a(I71743
I2607
tp412
a(I595870
I2606
tp413
a(I1548363
I2606
tp414
a(I1223912
I2604
tp415
a(I74320
I2603
tp416
a(I53694
I2602
tp417
a(I170248
I2602
tp418
a(I717542
I2602
tp419
a(I1229628
I2601
tp420
a(I954742
I2593
tp421
a(I2019240
I2593
tp422
a(I491513
I2591
tp423
a(I922551
I2591
tp424
a(I1484157
I2590
tp425
a(I877394
I2589
tp426
a(I2029858
I2588
tp427
a(I110938
I2587
tp428
a(I380505
I2585
tp429
a(I998502
I2585
tp430
a(I2101288
I2583
tp431
a(I1490538
I2582
tp432
a(I155342
I2581
tp433
a(I399971
I2581
tp434
a(I946380
I2581
tp435
a(I165247
I2578
tp436
a(I1007577
I2576
tp437
a(I1829748
I2576
tp438
a(I2538567
I2575
tp439
a(I686510
I2574
tp440
a(I1558286
I2574
tp441
a(I151004
I2571
tp442
a(I1650301
I2571
tp443
a(I1957786
I2570
tp444
a(I326356
I2569
tp445
a(I785992
I2568
tp446
a(I200255
I2564
tp447
a(I2366462
I2564
tp448
a(I1800701
I2563
tp449
a(I2446249
I2563
tp450
a(I1662714
I2562
tp451
a(I1287892
I2561
tp452
a(I499257
I2560
tp453
a(I2630337
I2560
tp454
a(I27061
I2559
tp455
a(I12812
I2558
tp456
a(I206893
I2556
tp457
a(I125296
I2555
tp458
a(I706832
I2555
tp459
a(I962019
I2551
tp460
a(I1106241
I2549
tp461
a(I826696
I2548
tp462
a(I1887657
I2546
tp463
a(I768876
I2545
tp464
a(I1785209
I2545
tp465
a(I620741
I2544
tp466
a(I1741099
I2541
tp467
a(I2385435
I2539
tp468
a(I1420020
I2538
tp469
a(I2401585
I2537
tp470
a(I2550506
I2531
tp471
a(I478176
I2528
tp472
a(I2535512
I2527
tp473
a(I2511278
I2523
tp474
a(I1255703
I2522
tp475
a(I832780
I2521
tp476
a(I2354740
I2521
tp477
a(I1788346
I2520
tp478
a(I2417531
I2518
tp479
a(I452667
I2514
tp480
a(I2251582
I2514
tp481
a(I1878798
I2513
tp482
a(I2209351
I2513
tp483
a(I2299951
I2510
tp484
a(I1147641
I2509
tp485
a(I361886
I2508
tp486
a(I835353
I2506
tp487
a(I1398256
I2504
tp488
a(I428688
I2503
tp489
a(I310887
I2500
tp490
a(I2012897
I2500
tp491
a(I187896
I2499
tp492
a(I2049734
I2498
tp493
a(I2250323
I2496
tp494
a(I1519692
I2495
tp495
a(I241634
I2494
tp496
a(I2509048
I2494
tp497
a(I1583631
I2493
tp498
a(I2328511
I2491
tp499
a(I753231
I2490
tp500
a(I240748
I2489
tp501
a(I461110
I2489
tp502
a(I968184
I2489
tp503
a(I1456579
I2489
tp504
a(I603543
I2488
tp505
a(I1563698
I2488
tp506
a(I2376301
I2487
tp507
a(I1988192
I2486
tp508
a(I371701
I2485
tp509
a(I1575462
I2485
tp510
a(I1385788
I2484
tp511
a(I879760
I2483
tp512
a(I2166018
I2483
tp513
a(I290916
I2482
tp514
a(I10679
I2479
tp515
a(I2226525
I2477
tp516
a(I685565
I2474
tp517
a(I1573228
I2474
tp518
a(I1720861
I2471
tp519
a(I2495584
I2471
tp520
a(I1114342
I2470
tp521
a(I764785
I2469
tp522
a(I1559022
I2468
tp523
a(I1274035
I2466
tp524
a(I1430108
I2464
tp525
a(I779811
I2463
tp526
a(I1399249
I2463
tp527
a(I2442646
I2461
tp528
a(I485601
I2459
tp529
a(I1421913
I2459
tp530
a(I983069
I2457
tp531
a(I759737
I2456
tp532
a(I2136927
I2455
tp533
a(I1777614
I2454
tp534
a(I1867238
I2454
tp535
a(I320856
I2453
tp536
a(I2290732
I2453
tp537
a(I232877
I2451
tp538
a(I492291
I2451
tp539
a(I2519865
I2451
tp540
a(I2545730
I2450
tp541
a(I2394024
I2449
tp542
a(I1351421
I2448
tp543
a(I1813197
I2448
tp544
a(I17864
I2446
tp545
a(I230265
I2444
tp546
a(I2260788
I2444
tp547
a(I974174
I2443
tp548
a(I136477
I2437
tp549
a(I817339
I2436
tp550
a(I1087944
I2435
tp551
a(I1194911
I2435
tp552
a(I1823645
I2434
tp553
a(I1625122
I2433
tp554
a(I2005241
I2432
tp555
a(I2244849
I2432
tp556
a(I992021
I2431
tp557
a(I2153721
I2430
tp558
a(I522180
I2428
tp559
a(I2023883
I2428
tp560
a(I651541
I2427
tp561
a(I1727232
I2425
tp562
a(I1814516
I2425
tp563
a(I942523
I2423
tp564
a(I1663694
I2423
tp565
a(I2541025
I2423
tp566
a(I2406705
I2418
tp567
a(I2526414
I2418
tp568
a(I1526365
I2417
tp569
a(I1480571
I2416
tp570
a(I1615850
I2415
tp571
a(I182203
I2414
tp572
a(I1044050
I2413
tp573
a(I1174530
I2413
tp574
a(I2237988
I2413
tp575
a(I828349
I2411
tp576
a(I659526
I2410
tp577
a(I723448
I2408
tp578
a(I1177340
I2407
tp579
a(I1919269
I2406
tp580
a(I701443
I2405
tp581
a(I2349412
I2405
tp582
a(I515436
I2402
tp583
a(I974823
I2402
tp584
a(I455024
I2401
tp585
a(I1073300
I2400
tp586
a(I2393478
I2399
tp587
a(I1458854
I2397
tp588
a(I1559165
I2397
tp589
a(I1397843
I2394
tp590
a(I2205594
I2394
tp591
a(I138835
I2393
tp592
a(I953110
I2393
tp593
a(I1002943
I2391
tp594
a(I2350588
I2391
tp595
a(I97578
I2390
tp596
a(I282654
I2390
tp597
a(I758383
I2390
tp598
a(I2035595
I2390
tp599
a(I1275094
I2389
tp600
a(I2409465
I2387
tp601
a(I224795
I2386
tp602
a(I567705
I2385
tp603
a(I48607
I2384
tp604
a(I170551
I2384
tp605
a(I49585
I2382
tp606
a(I491331
I2381
tp607
a(I2174151
I2381
tp608
a(I2450942
I2381
tp609
a(I374741
I2380
tp610
a(I1480781
I2379
tp611
a(I2102846
I2379
tp612
a(I2536547
I2379
tp613
a(I1173289
I2378
tp614
a(I1769985
I2378
tp615
a(I612111
I2377
tp616
a(I2100574
I2376
tp617
a(I476695
I2374
tp618
a(I1489224
I2372
tp619
a(I107776
I2371
tp620
a(I1820960
I2367
tp621
a(I1054564
I2366
tp622
a(I885386
I2365
tp623
a(I2198123
I2365
tp624
a(I1060057
I2363
tp625
a(I2289197
I2363
tp626
a(I872408
I2360
tp627
a(I702403
I2357
tp628
a(I525071
I2356
tp629
a(I1184537
I2354
tp630
a(I411512
I2352
tp631
a(I1629801
I2352
tp632
a(I1741303
I2352
tp633
a(I1033433
I2351
tp634
a(I973313
I2350
tp635
a(I334643
I2346
tp636
a(I1119113
I2346
tp637
a(I2024111
I2346
tp638
a(I965104
I2345
tp639
a(I760481
I2342
tp640
a(I828444
I2339
tp641
a(I1413367
I2339
tp642
a(I596995
I2338
tp643
a(I1115451
I2338
tp644
a(I111086
I2337
tp645
a(I342510
I2337
tp646
a(I1174811
I2337
tp647
a(I282887
I2334
tp648
a(I437586
I2334
tp649
a(I2584980
I2333
tp650
a(I1821474
I2332
tp651
a(I1428930
I2330
tp652
a(I2495474
I2330
tp653
a(I524295
I2328
tp654
a(I1242044
I2327
tp655
a(I1877483
I2327
tp656
a(I1109043
I2326
tp657
a(I1112365
I2326
tp658
a(I2640550
I2326
tp659
a(I890573
I2324
tp660
a(I1435891
I2323
tp661
a(I1952860
I2323
tp662
a(I165374
I2322
tp663
a(I1181558
I2322
tp664
a(I286684
I2321
tp665
a(I416560
I2321
tp666
a(I1486829
I2320
tp667
a(I867311
I2319
tp668
a(I2161899
I2319
tp669
a(I980292
I2318
tp670
a(I2387463
I2318
tp671
a(I2375169
I2316
tp672
a(I2540684
I2315
tp673
a(I1134379
I2313
tp674
a(I2110645
I2313
tp675
a(I2601377
I2312
tp676
a(I1294425
I2311
tp677
a(I128389
I2310
tp678
a(I655601
I2307
tp679
a(I108936
I2306
tp680
a(I1034831
I2306
tp681
a(I2069442
I2306
tp682
a(I1510091
I2305
tp683
a(I826184
I2304
tp684
a(I2551641
I2303
tp685
a(I1848938
I2302
tp686
a(I922922
I2301
tp687
a(I2232041
I2300
tp688
a(I91234
I2299
tp689
a(I275600
I2299
tp690
a(I306466
I2299
tp691
a(I1057992
I2299
tp692
a(I2110107
I2298
tp693
a(I2588416
I2298
tp694
a(I1827859
I2295
tp695
a(I200805
I2294
tp696
a(I472734
I2294
tp697
a(I1578801
I2294
tp698
a(I2043555
I2294
tp699
a(I774602
I2293
tp700
a(I1200256
I2293
tp701
a(I2503887
I2293
tp702
a(I1520166
I2292
tp703
a(I953604
I2291
tp704
a(I2398061
I2290
tp705
a(I279966
I2289
tp706
a(I748141
I2288
tp707
a(I1672832
I2288
tp708
a(I922812
I2286
tp709
a(I2636478
I2286
tp710
a(I189887
I2284
tp711
a(I256676
I2283
tp712
a(I819314
I2282
tp713
a(I683254
I2281
tp714
a(I780768
I2280
tp715
a(I924960
I2280
tp716
a(I956229
I2280
tp717
a(I1110164
I2280
tp718
a(I1935592
I2280
tp719
a(I2584252
I2280
tp720
a(I128311
I2279
tp721
a(I2366006
I2279
tp722
a(I248904
I2278
tp723
a(I1424487
I2277
tp724
a(I1383836
I2276
tp725
a(I864647
I2273
tp726
a(I923517
I2273
tp727
a(I1706873
I2273
tp728
a(I2365581
I2272
tp729
a(I1610234
I2270
tp730
a(I200427
I2267
tp731
a(I43751
I2266
tp732
a(I1662098
I2266
tp733
a(I431326
I2265
tp734
a(I1130133
I2264
tp735
a(I1832073
I2262
tp736
a(I2037693
I2262
tp737
a(I1310250
I2260
tp738
a(I1605580
I2260
tp739
a(I2023518
I2258
tp740
a(I265257
I2257
tp741
a(I2531844
I2256
tp742
a(I403915
I2255
tp743
a(I1782185
I2254
tp744
a(I1815129
I2254
tp745
a(I46650
I2253
tp746
a(I720503
I2253
tp747
a(I1733406
I2253
tp748
a(I1771365
I2253
tp749
a(I1392942
I2252
tp750
a(I1565175
I2252
tp751
a(I1596469
I2252
tp752
a(I1611056
I2251
tp753
a(I2536114
I2251
tp754
a(I551208
I2250
tp755
a(I701962
I2250
tp756
a(I862040
I2250
tp757
a(I2278766
I2250
tp758
a(I219888
I2249
tp759
a(I1337026
I2248
tp760
a(I377937
I2245
tp761
a(I504211
I2245
tp762
a(I1296679
I2241
tp763
a(I1599243
I2241
tp764
a(I2599262
I2238
tp765
a(I1207990
I2237
tp766
a(I1312661
I2236
tp767
a(I1297347
I2235
tp768
a(I1812378
I2231
tp769
a(I2033070
I2231
tp770
a(I2345098
I2231
tp771
a(I55339
I2230
tp772
a(I1880039
I2227
tp773
a(I427186
I2226
tp774
a(I2257189
I2226
tp775
a(I3998
I2225
tp776
a(I554137
I2225
tp777
a(I835847
I2225
tp778
a(I2144655
I2223
tp779
a(I2637886
I2223
tp780
a(I1719610
I2221
tp781
a(I2126215
I2221
tp782
a(I826270
I2219
tp783
a(I1251664
I2218
tp784
a(I194528
I2217
tp785
a(I517441
I2217
tp786
a(I2356870
I2217
tp787
a(I452299
I2214
tp788
a(I1828803
I2214
tp789
a(I441361
I2212
tp790
a(I70476
I2211
tp791
a(I1178846
I2211
tp792
a(I247794
I2210
tp793
a(I2513621
I2210
tp794
a(I1327900
I2209
tp795
a(I1065445
I2208
tp796
a(I510834
I2207
tp797
a(I637266
I2207
tp798
a(I1854658
I2207
tp799
a(I1488844
I2206
tp800
a(I2059696
I2205
tp801
a(I952582
I2204
tp802
a(I2141105
I2203
tp803
a(I2607300
I2203
tp804
a(I2640760
I2203
tp805
a(I940516
I2202
tp806
a(I1253619
I2202
tp807
a(I920932
I2201
tp808
a(I981199
I2200
tp809
a(I408645
I2199
tp810
a(I1132940
I2199
tp811
a(I1226844
I2199
tp812
a(I2491620
I2199
tp813
a(I1365840
I2198
tp814
a(I2394704
I2198
tp815
a(I1130380
I2196
tp816
a(I2455281
I2196
tp817
a(I290700
I2195
tp818
a(I1538355
I2195
tp819
a(I1800459
I2195
tp820
a(I1348456
I2194
tp821
a(I1446775
I2194
tp822
a(I1726438
I2194
tp823
a(I904391
I2193
tp824
a(I1087416
I2193
tp825
a(I1939431
I2192
tp826
a(I250509
I2191
tp827
a(I1172980
I2191
tp828
a(I1847613
I2191
tp829
a(I309424
I2190
tp830
a(I2107068
I2188
tp831
a(I1092677
I2186
tp832
a(I1099833
I2186
tp833
a(I2388205
I2186
tp834
a(I2549238
I2186
tp835
a(I567875
I2185
tp836
a(I1932377
I2185
tp837
a(I670416
I2184
tp838
a(I2554035
I2184
tp839
a(I1103080
I2182
tp840
a(I2372141
I2182
tp841
a(I1696308
I2181
tp842
a(I596255
I2180
tp843
a(I515441
I2179
tp844
a(I1167767
I2179
tp845
a(I1105686
I2177
tp846
a(I1416836
I2177
tp847
a(I236160
I2176
tp848
a(I635056
I2176
tp849
a(I1197493
I2176
tp850
a(I962151
I2175
tp851
a(I1459727
I2175
tp852
a(I2457720
I2175
tp853
a(I1951144
I2174
tp854
a(I287566
I2173
tp855
a(I1533807
I2173
tp856
a(I1728944
I2173
tp857
a(I2152273
I2173
tp858
a(I2524669
I2173
tp859
a(I580231
I2171
tp860
a(I778615
I2171
tp861
a(I2518947
I2171
tp862
a(I2640278
I2171
tp863
a(I572481
I2170
tp864
a(I325844
I2169
tp865
a(I507921
I2169
tp866
a(I388514
I2168
tp867
a(I1329904
I2167
tp868
a(I318409
I2166
tp869
a(I1955660
I2166
tp870
a(I700490
I2165
tp871
a(I1150705
I2165
tp872
a(I1393159
I2165
tp873
a(I2472640
I2165
tp874
a(I432259
I2164
tp875
a(I1210199
I2163
tp876
a(I2030523
I2163
tp877
a(I1444777
I2161
tp878
a(I2312349
I2161
tp879
a(I1642678
I2159
tp880
a(I2465236
I2159
tp881
a(I317779
I2157
tp882
a(I1299355
I2157
tp883
a(I2556305
I2156
tp884
a(I154669
I2154
tp885
a(I1191408
I2154
tp886
a(I1276711
I2154
tp887
a(I1449358
I2154
tp888
a(I1486956
I2154
tp889
a(I828344
I2153
tp890
a(I1914525
I2152
tp891
a(I242681
I2151
tp892
a(I1201695
I2151
tp893
a(I2103029
I2151
tp894
a(I1181609
I2149
tp895
a(I2509588
I2148
tp896
a(I2145441
I2147
tp897
a(I2295594
I2147
tp898
a(I360005
I2146
tp899
a(I1232251
I2146
tp900
a(I1313126
I2145
tp901
a(I1984978
I2145
tp902
a(I348960
I2144
tp903
a(I1906611
I2144
tp904
a(I686204
I2142
tp905
a(I511899
I2141
tp906
a(I152858
I2139
tp907
a(I689488
I2139
tp908
a(I1018379
I2139
tp909
a(I1899913
I2138
tp910
a(I442963
I2137
tp911
a(I936093
I2137
tp912
a(I1436780
I2137
tp913
a(I347276
I2136
tp914
a(I892694
I2136
tp915
a(I1783225
I2136
tp916
a(I1197233
I2135
tp917
a(I1275275
I2135
tp918
a(I2598028
I2135
tp919
a(I366233
I2134
tp920
a(I935732
I2133
tp921
a(I2205259
I2133
tp922
a(I2043149
I2132
tp923
a(I407877
I2130
tp924
a(I1232164
I2130
tp925
a(I2133714
I2128
tp926
a(I608538
I2127
tp927
a(I2378918
I2126
tp928
a(I328212
I2125
tp929
a(I1635582
I2124
tp930
a(I2600868
I2124
tp931
a(I315168
I2123
tp932
a(I847313
I2123
tp933
a(I1109700
I2123
tp934
a(I2040853
I2123
tp935
a(I2316337
I2123
tp936
a(I2455340
I2122
tp937
a(I227799
I2121
tp938
a(I1120091
I2121
tp939
a(I2136526
I2121
tp940
a(I349331
I2120
tp941
a(I1790158
I2120
tp942
a(I2125368
I2120
tp943
a(I2264426
I2120
tp944
a(I184888
I2119
tp945
a(I401047
I2119
tp946
a(I1161725
I2118
tp947
a(I1801528
I2118
tp948
a(I109177
I2117
tp949
a(I2120912
I2117
tp950
a(I2332765
I2117
tp951
a(I511883
I2116
tp952
a(I716091
I2116
tp953
a(I1409104
I2116
tp954
a(I1039555
I2114
tp955
a(I894205
I2113
tp956
a(I1280761
I2113
tp957
a(I1992205
I2113
tp958
a(I2086265
I2113
tp959
a(I2039272
I2112
tp960
a(I1743756
I2111
tp961
a(I2118885
I2110
tp962
a(I2120864
I2110
tp963
a(I2152465
I2110
tp964
a(I2198070
I2110
tp965
a(I2243435
I2110
tp966
a(I262411
I2108
tp967
a(I5980
I2107
tp968
a(I652618
I2107
tp969
a(I1488926
I2107
tp970
a(I43530
I2106
tp971
a(I168523
I2106
tp972
a(I1047830
I2106
tp973
a(I332300
I2105
tp974
a(I2598647
I2105
tp975
a(I1009622
I2104
tp976
a(I2077046
I2104
tp977
a(I391521
I2103
tp978
a(I545026
I2103
tp979
a(I1439882
I2103
tp980
a(I827240
I2102
tp981
a(I1758002
I2102
tp982
a(I2621201
I2102
tp983
a(I838130
I2100
tp984
a(I2000256
I2100
tp985
a(I2552315
I2099
tp986
a(I2021377
I2097
tp987
a(I486798
I2096
tp988
a(I197101
I2095
tp989
a(I581952
I2095
tp990
a(I844049
I2095
tp991
a(I1268483
I2095
tp992
a(I2286189
I2094
tp993
a(I151153
I2092
tp994
a(I1477153
I2092
tp995
a(I2513873
I2092
tp996
a(I1814136
I2091
tp997
a(I1293514
I2088
tp998
a(I1841531
I2088
tp999
a(I574499
I2087
tp1000
a(I2621962
I2087
tp1001
a(I1450883
I2086
tp1002
a(I1125075
I2085
tp1003
a(I1371451
I2085
tp1004
a(I1764923
I2085
tp1005
a(I2370879
I2085
tp1006
a(I476512
I2084
tp1007
a(I1570999
I2084
tp1008
a(I1084626
I2083
tp1009
a(I1409687
I2083
tp1010
a(I1592339
I2083
tp1011
a(I1675194
I2083
tp1012
a(I1906860
I2083
tp1013
a(I436122
I2081
tp1014
a(I2041252
I2081
tp1015
a(I315833
I2080
tp1016
a(I2361804
I2079
tp1017
a(I256278
I2078
tp1018
a(I863285
I2078
tp1019
a(I2000237
I2078
tp1020
a(I1116110
I2077
tp1021
a(I1262753
I2077
tp1022
a(I1132764
I2076
tp1023
a(I1125150
I2075
tp1024
a(I1200461
I2075
tp1025
a(I361375
I2074
tp1026
a(I1886585
I2074
tp1027
a(I1737529
I2073
tp1028
a(I804027
I2072
tp1029
a(I753663
I2070
tp1030
a(I1247574
I2070
tp1031
a(I872882
I2069
tp1032
a(I2375380
I2069
tp1033
a(I933168
I2068
tp1034
a(I1300582
I2068
tp1035
a(I1494821
I2068
tp1036
a(I804602
I2067
tp1037
a(I1279821
I2067
tp1038
a(I1300687
I2067
tp1039
a(I38879
I2066
tp1040
a(I609908
I2066
tp1041
a(I1034714
I2066
tp1042
a(I1671947
I2066
tp1043
a(I654401
I2065
tp1044
a(I983042
I2065
tp1045
a(I1645535
I2065
tp1046
a(I2512235
I2065
tp1047
a(I707528
I2064
tp1048
a(I1917470
I2064
tp1049
a(I1781198
I2063
tp1050
a(I2137795
I2063
tp1051
a(I2238629
I2063
tp1052
a(I1213178
I2062
tp1053
a(I634388
I2061
tp1054
a(I811530
I2061
tp1055
a(I1057021
I2061
tp1056
a(I1912542
I2061
tp1057
a(I2492695
I2061
tp1058
a(I1220431
I2060
tp1059
a(I1256752
I2060
tp1060
a(I360830
I2059
tp1061
a(I933819
I2059
tp1062
a(I974375
I2059
tp1063
a(I1049142
I2059
tp1064
a(I1517590
I2059
tp1065
a(I1875008
I2059
tp1066
a(I128348
I2057
tp1067
a(I830855
I2057
tp1068
a(I237286
I2056
tp1069
a(I311070
I2056
tp1070
a(I2077664
I2056
tp1071
a(I2152805
I2056
tp1072
a(I903666
I2055
tp1073
a(I1106280
I2055
tp1074
a(I1658662
I2055
tp1075
a(I1830690
I2055
tp1076
a(I1977612
I2054
tp1077
a(I2339734
I2053
tp1078
a(I818416
I2052
tp1079
a(I1772901
I2052
tp1080
a(I1527676
I2051
tp1081
a(I138106
I2050
tp1082
a(I1229656
I2050
tp1083
a(I1628484
I2050
tp1084
a(I332923
I2049
tp1085
a(I1936110
I2049
tp1086
a(I1973951
I2049
tp1087
a(I1613540
I2048
tp1088
a(I1811832
I2048
tp1089
a(I1863499
I2048
tp1090
a(I2446506
I2048
tp1091
a(I228978
I2047
tp1092
a(I934647
I2047
tp1093
a(I1133763
I2047
tp1094
a(I1084999
I2045
tp1095
a(I2540263
I2045
tp1096
a(I670382
I2044
tp1097
a(I2533480
I2044
tp1098
a(I274191
I2043
tp1099
a(I442222
I2043
tp1100
a(I1456270
I2043
tp1101
a(I2064995
I2043
tp1102
a(I642551
I2042
tp1103
a(I1333911
I2042
tp1104
a(I2017088
I2042
tp1105
a(I203738
I2041
tp1106
a(I1374216
I2041
tp1107
a(I2497991
I2039
tp1108
a(I1486501
I2038
tp1109
a(I72607
I2037
tp1110
a(I390062
I2037
tp1111
a(I2257323
I2037
tp1112
a(I2466682
I2037
tp1113
a(I584437
I2036
tp1114
a(I1835142
I2036
tp1115
a(I1281882
I2035
tp1116
a(I2034589
I2035
tp1117
a(I2583311
I2035
tp1118
a(I782611
I2034
tp1119
a(I61472
I2033
tp1120
a(I1216880
I2033
tp1121
a(I1478117
I2033
tp1122
a(I2204299
I2033
tp1123
a(I1080872
I2032
tp1124
a(I1494162
I2032
tp1125
a(I2629599
I2032
tp1126
a(I501823
I2031
tp1127
a(I901269
I2031
tp1128
a(I520704
I2030
tp1129
a(I1993796
I2030
tp1130
a(I2172649
I2029
tp1131
a(I1276473
I2028
tp1132
a(I1860332
I2028
tp1133
a(I2092609
I2028
tp1134
a(I2079894
I2027
tp1135
a(I2228750
I2027
tp1136
a(I2333850
I2027
tp1137
a(I2341389
I2027
tp1138
a(I2623852
I2027
tp1139
a(I2627190
I2027
tp1140
a(I1165236
I2026
tp1141
a(I2496492
I2026
tp1142
a(I758850
I2025
tp1143
a(I263291
I2023
tp1144
a(I464774
I2023
tp1145
a(I938764
I2022
tp1146
a(I1124753
I2022
tp1147
a(I1332725
I2022
tp1148
a(I2646347
I2022
tp1149
a(I275338
I2021
tp1150
a(I415641
I2021
tp1151
a(I1739082
I2021
tp1152
a(I2417320
I2021
tp1153
a(I2596383
I2021
tp1154
a(I269474
I2020
tp1155
a(I1329779
I2020
tp1156
a(I1763979
I2020
tp1157
a(I1849541
I2020
tp1158
a(I288420
I2019
tp1159
a(I318457
I2019
tp1160
a(I1145956
I2019
tp1161
a(I1428452
I2019
tp1162
a(I2578541
I2019
tp1163
a(I1077945
I2018
tp1164
a(I1197972
I2018
tp1165
a(I1916224
I2018
tp1166
a(I2543231
I2018
tp1167
a(I2603700
I2018
tp1168
a(I11796
I2017
tp1169
a(I881355
I2017
tp1170
a(I654591
I2016
tp1171
a(I2546942
I2016
tp1172
a(I554587
I2015
tp1173
a(I853491
I2015
tp1174
a(I2319282
I2015
tp1175
a(I1134816
I2014
tp1176
a(I844459
I2013
tp1177
a(I1370666
I2013
tp1178
a(I86365
I2012
tp1179
a(I921585
I2011
tp1180
a(I1540655
I2011
tp1181
a(I1663717
I2011
tp1182
a(I1766524
I2011
tp1183
a(I1322467
I2010
tp1184
a(I2418086
I2009
tp1185
a(I1144139
I2008
tp1186
a(I1503647
I2008
tp1187
a(I1580437
I2008
tp1188
a(I1774181
I2008
tp1189
a(I1844442
I2008
tp1190
a(I2297074
I2008
tp1191
a(I321089
I2007
tp1192
a(I1551751
I2007
tp1193
a(I1722054
I2007
tp1194
a(I1906026
I2006
tp1195
a(I2487127
I2006
tp1196
a(I98586
I2005
tp1197
a(I652972
I2005
tp1198
a(I2383871
I2005
tp1199
a(I542907
I2004
tp1200
a(I1082263
I2004
tp1201
a(I1291455
I2004
tp1202
a(I1360936
I2004
tp1203
a(I1717979
I2004
tp1204
a(I2262335
I2004
tp1205
a(I2607155
I2004
tp1206
a(I415672
I2003
tp1207
a(I1423063
I2003
tp1208
a(I911828
I2002
tp1209
a(I977932
I2002
tp1210
a(I1441086
I2002
tp1211
a(I840763
I2001
tp1212
a(I79380
I2000
tp1213
a(I2045846
I2000
tp1214
a(I75384
I1999
tp1215
a(I1594764
I1999
tp1216
a(I2276659
I1999
tp1217
a(I2416290
I1999
tp1218
a(I2576843
I1998
tp1219
a(I2466899
I1997
tp1220
a(I271346
I1996
tp1221
a(I719755
I1996
tp1222
a(I1480807
I1996
tp1223
a(I1850680
I1995
tp1224
a(I1024568
I1994
tp1225
a(I2029766
I1994
tp1226
a(I2081789
I1993
tp1227
a(I2494071
I1993
tp1228
a(I62361
I1992
tp1229
a(I440463
I1992
tp1230
a(I546751
I1992
tp1231
a(I1349711
I1992
tp1232
a(I47411
I1991
tp1233
a(I478815
I1991
tp1234
a(I1318289
I1991
tp1235
a(I2604057
I1991
tp1236
a(I133129
I1990
tp1237
a(I1972040
I1990
tp1238
a(I2481504
I1990
tp1239
a(I397001
I1989
tp1240
a(I2492392
I1989
tp1241
a(I122019
I1988
tp1242
a(I188190
I1988
tp1243
a(I608501
I1988
tp1244
a(I1703879
I1988
tp1245
a(I1692302
I1987
tp1246
a(I760943
I1986
tp1247
a(I1632290
I1986
tp1248
a(I296452
I1985
tp1249
a(I496436
I1985
tp1250
a(I741248
I1985
tp1251
a(I823628
I1985
tp1252
a(I1592086
I1985
tp1253
a(I419691
I1984
tp1254
a(I1658790
I1984
tp1255
a(I32902
I1983
tp1256
a(I44734
I1982
tp1257
a(I1478933
I1982
tp1258
a(I2090015
I1982
tp1259
a(I529687
I1981
tp1260
a(I1536728
I1981
tp1261
a(I1519073
I1980
tp1262
a(I42487
I1979
tp1263
a(I1312412
I1979
tp1264
a(I417746
I1978
tp1265
a(I1424768
I1978
tp1266
a(I1952500
I1978
tp1267
a(I2199355
I1978
tp1268
a(I67134
I1977
tp1269
a(I1059661
I1977
tp1270
a(I1280149
I1977
tp1271
a(I1230594
I1976
tp1272
a(I326502
I1975
tp1273
a(I675283
I1975
tp1274
a(I1382872
I1975
tp1275
a(I2270619
I1975
tp1276
a(I976385
I1974
tp1277
a(I1098431
I1974
tp1278
a(I1436668
I1974
tp1279
a(I2629195
I1974
tp1280
a(I931232
I1973
tp1281
a(I639194
I1972
tp1282
a(I2048686
I1972
tp1283
a(I570681
I1971
tp1284
a(I2015182
I1971
tp1285
a(I2021943
I1971
tp1286
a(I2257122
I1971
tp1287
a(I369646
I1970
tp1288
a(I770133
I1970
tp1289
a(I1276913
I1970
tp1290
a(I1444657
I1970
tp1291
a(I1675183
I1970
tp1292
a(I945258
I1969
tp1293
a(I1620319
I1969
tp1294
a(I1973244
I1969
tp1295
a(I2391686
I1969
tp1296
a(I1988633
I1968
tp1297
a(I761998
I1966
tp1298
a(I2090715
I1966
tp1299
a(I106870
I1965
tp1300
a(I520507
I1965
tp1301
a(I1400154
I1965
tp1302
a(I1412189
I1965
tp1303
a(I192889
I1964
tp1304
a(I1739296
I1964
tp1305
a(I2299517
I1964
tp1306
a(I2170930
I1963
tp1307
a(I406841
I1962
tp1308
a(I1127117
I1962
tp1309
a(I2561713
I1962
tp1310
a(I492714
I1961
tp1311
a(I1620201
I1961
tp1312
a(I381346
I1960
tp1313
a(I874550
I1960
tp1314
a(I2025153
I1960
tp1315
a(I2263041
I1960
tp1316
a(I731988
I1959
tp1317
a(I1312066
I1959
tp1318
a(I2512828
I1959
tp1319
a(I116252
I1958
tp1320
a(I312937
I1958
tp1321
a(I1466382
I1958
tp1322
a(I133670
I1957
tp1323
a(I715542
I1957
tp1324
a(I2039201
I1957
tp1325
a(I1714672
I1956
tp1326
a(I2402136
I1956
tp1327
a(I2417151
I1955
tp1328
a(I975592
I1954
tp1329
a(I1153562
I1954
tp1330
a(I1605122
I1953
tp1331
a(I259431
I1952
tp1332
a(I2481827
I1952
tp1333
a(I781610
I1951
tp1334
a(I1675966
I1951
tp1335
a(I2138793
I1951
tp1336
a(I1778955
I1950
tp1337
a(I267378
I1948
tp1338
a(I1835511
I1948
tp1339
a(I2046091
I1948
tp1340
a(I2305067
I1948
tp1341
a(I2385226
I1948
tp1342
a(I2495043
I1948
tp1343
a(I2521955
I1948
tp1344
a(I563705
I1947
tp1345
a(I1615548
I1947
tp1346
a(I2089924
I1947
tp1347
a(I2622843
I1947
tp1348
a(I1658101
I1946
tp1349
a(I1911845
I1946
tp1350
a(I2269039
I1946
tp1351
a(I2570444
I1946
tp1352
a(I2597802
I1946
tp1353
a(I1478444
I1945
tp1354
a(I1659398
I1944
tp1355
a(I2343417
I1944
tp1356
a(I19930
I1943
tp1357
a(I610024
I1943
tp1358
a(I806605
I1942
tp1359
a(I1881328
I1942
tp1360
a(I647691
I1941
tp1361
a(I1118103
I1941
tp1362
a(I1283171
I1941
tp1363
a(I30288
I1940
tp1364
a(I977533
I1940
tp1365
a(I1287490
I1940
tp1366
a(I2051278
I1940
tp1367
a(I2432848
I1940
tp1368
a(I731592
I1939
tp1369
a(I1511683
I1939
tp1370
a(I1787323
I1939
tp1371
a(I2633486
I1939
tp1372
a(I361407
I1938
tp1373
a(I541870
I1938
tp1374
a(I1259374
I1938
tp1375
a(I1586533
I1938
tp1376
a(I1999678
I1938
tp1377
a(I324510
I1937
tp1378
a(I920088
I1937
tp1379
a(I1002780
I1937
tp1380
a(I2276333
I1937
tp1381
a(I300435
I1935
tp1382
a(I190547
I1934
tp1383
a(I243304
I1934
tp1384
a(I610915
I1934
tp1385
a(I831920
I1934
tp1386
a(I1450484
I1934
tp1387
a(I2120303
I1934
tp1388
a(I152807
I1933
tp1389
a(I1520710
I1933
tp1390
a(I1571565
I1933
tp1391
a(I1824009
I1933
tp1392
a(I2428423
I1933
tp1393
a(I402413
I1932
tp1394
a(I255357
I1931
tp1395
a(I1640132
I1931
tp1396
a(I1752638
I1931
tp1397
a(I110288
I1930
tp1398
a(I923889
I1930
tp1399
a(I1649068
I1930
tp1400
a(I2397231
I1930
tp1401
a(I2246248
I1929
tp1402
a(I2158747
I1928
tp1403
a(I2580072
I1928
tp1404
a(I2128440
I1927
tp1405
a(I2204671
I1927
tp1406
a(I1170335
I1926
tp1407
a(I1647674
I1926
tp1408
a(I90900
I1925
tp1409
a(I92786
I1925
tp1410
a(I396132
I1925
tp1411
a(I483981
I1925
tp1412
a(I825831
I1925
tp1413
a(I1394012
I1925
tp1414
a(I2468881
I1925
tp1415
a(I2578830
I1925
tp1416
a(I1148389
I1924
tp1417
a(I1925397
I1924
tp1418
a(I351213
I1923
tp1419
a(I596550
I1923
tp1420
a(I962384
I1923
tp1421
a(I1298147
I1923
tp1422
a(I1769206
I1923
tp1423
a(I845991
I1922
tp1424
a(I1556692
I1922
tp1425
a(I1564191
I1922
tp1426
a(I1878780
I1922
tp1427
a(I977703
I1921
tp1428
a(I1041130
I1921
tp1429
a(I1753194
I1921
tp1430
a(I64765
I1920
tp1431
a(I1241893
I1920
tp1432
a(I2167703
I1920
tp1433
a(I87113
I1919
tp1434
a(I1730537
I1919
tp1435
a(I1797525
I1919
tp1436
a(I2073766
I1919
tp1437
a(I2229960
I1919
tp1438
a(I858814
I1918
tp1439
a(I1823259
I1918
tp1440
a(I2115299
I1918
tp1441
a(I4905
I1917
tp1442
a(I50400
I1916
tp1443
a(I565510
I1916
tp1444
a(I1621089
I1916
tp1445
a(I2331946
I1916
tp1446
a(I2609677
I1916
tp1447
a(I1418521
I1915
tp1448
a(I2250261
I1915
tp1449
a(I297453
I1914
tp1450
a(I536967
I1914
tp1451
a(I1629176
I1914
tp1452
a(I1755612
I1914
tp1453
a(I1983493
I1914
tp1454
a(I2272654
I1914
tp1455
a(I1482921
I1913
tp1456
a(I80683
I1912
tp1457
a(I380354
I1912
tp1458
a(I1990523
I1912
tp1459
a(I876370
I1911
tp1460
a(I1463088
I1911
tp1461
a(I1739440
I1911
tp1462
a(I290874
I1910
tp1463
a(I1066481
I1910
tp1464
a(I1334401
I1910
tp1465
a(I1473595
I1910
tp1466
a(I553115
I1909
tp1467
a(I1347916
I1909
tp1468
a(I2311867
I1908
tp1469
a(I2402990
I1908
tp1470
a(I54870
I1907
tp1471
a(I1315827
I1907
tp1472
a(I1942723
I1907
tp1473
a(I2080549
I1907
tp1474
a(I453585
I1906
tp1475
a(I471654
I1906
tp1476
a(I1144671
I1906
tp1477
a(I1337699
I1906
tp1478
a(I714349
I1905
tp1479
a(I951446
I1905
tp1480
a(I1079964
I1905
tp1481
a(I1095815
I1905
tp1482
a(I2203182
I1905
tp1483
a(I102028
I1904
tp1484
a(I736927
I1904
tp1485
a(I884944
I1904
tp1486
a(I1388677
I1904
tp1487
a(I1872926
I1904
tp1488
a(I2374782
I1904
tp1489
a(I1277678
I1903
tp1490
a(I1555531
I1903
tp1491
a(I1862911
I1903
tp1492
a(I2394211
I1903
tp1493
a(I900096
I1902
tp1494
a(I1244123
I1902
tp1495
a(I1401726
I1902
tp1496
a(I2091736
I1902
tp1497
a(I1376923
I1901
tp1498
a(I2593882
I1901
tp1499
a(I129766
I1900
tp1500
a(I289162
I1900
tp1501
a(I1546115
I1900
tp1502
a(I2412878
I1900
tp1503
a(I706264
I1899
tp1504
a(I2244589
I1899
tp1505
a(I2452430
I1899
tp1506
a(I420266
I1898
tp1507
a(I483851
I1898
tp1508
a(I531010
I1898
tp1509
a(I1022452
I1898
tp1510
a(I1289999
I1898
tp1511
a(I2338809
I1898
tp1512
a(I717338
I1897
tp1513
a(I1324830
I1897
tp1514
a(I2647197
I1897
tp1515
a(I226048
I1895
tp1516
a(I396140
I1895
tp1517
a(I662124
I1895
tp1518
a(I690426
I1895
tp1519
a(I1606342
I1895
tp1520
a(I2444240
I1895
tp1521
a(I752094
I1894
tp1522
a(I2066490
I1894
tp1523
a(I868723
I1893
tp1524
a(I1612558
I1893
tp1525
a(I2206502
I1893
tp1526
a(I1582412
I1892
tp1527
a(I1995099
I1892
tp1528
a(I1931026
I1890
tp1529
a(I2375964
I1890
tp1530
a(I1927703
I1889
tp1531
a(I1969285
I1889
tp1532
a(I187322
I1888
tp1533
a(I639089
I1888
tp1534
a(I789894
I1888
tp1535
a(I1470113
I1888
tp1536
a(I471880
I1886
tp1537
a(I1637683
I1886
tp1538
a(I1745577
I1886
tp1539
a(I2583202
I1886
tp1540
a(I537601
I1885
tp1541
a(I1653637
I1885
tp1542
a(I2117432
I1885
tp1543
a(I2468830
I1885
tp1544
a(I2557491
I1885
tp1545
a(I201707
I1884
tp1546
a(I685687
I1884
tp1547
a(I1637761
I1884
tp1548
a(I2299152
I1884
tp1549
a(I2502145
I1884
tp1550
a(I2556321
I1884
tp1551
a(I247932
I1883
tp1552
a(I1198962
I1883
tp1553
a(I2190100
I1883
tp1554
a(I1622407
I1882
tp1555
a(I1825647
I1882
tp1556
a(I1981464
I1882
tp1557
a(I2378393
I1882
tp1558
a(I570428
I1881
tp1559
a(I663880
I1881
tp1560
a(I2320222
I1881
tp1561
a(I2008700
I1880
tp1562
a(I116140
I1879
tp1563
a(I888450
I1879
tp1564
a(I1250802
I1879
tp1565
a(I2335640
I1879
tp1566
a(I800136
I1878
tp1567
a(I1580943
I1878
tp1568
a(I1986937
I1878
tp1569
a(I2487916
I1878
tp1570
a(I2496042
I1878
tp1571
a(I202678
I1877
tp1572
a(I726543
I1876
tp1573
a(I729150
I1876
tp1574
a(I2289956
I1876
tp1575
a(I58485
I1875
tp1576
a(I223043
I1875
tp1577
a(I512303
I1875
tp1578
a(I664230
I1875
tp1579
a(I1727342
I1875
tp1580
a(I2202365
I1875
tp1581
a(I2634707
I1875
tp1582
a(I306658
I1874
tp1583
a(I410206
I1874
tp1584
a(I1226928
I1874
tp1585
a(I1907843
I1874
tp1586
a(I2580353
I1874
tp1587
a(I1363315
I1873
tp1588
a(I1410683
I1873
tp1589
a(I1828179
I1873
tp1590
a(I1923216
I1873
tp1591
a(I2167896
I1873
tp1592
a(I835271
I1872
tp1593
a(I1691893
I1872
tp1594
a(I2047888
I1872
tp1595
a(I623709
I1871
tp1596
a(I1559797
I1871
tp1597
a(I139212
I1870
tp1598
a(I921587
I1870
tp1599
a(I1385356
I1870
tp1600
a(I2229399
I1870
tp1601
a(I2617170
I1870
tp1602
a(I285975
I1869
tp1603
a(I317504
I1869
tp1604
a(I2042985
I1869
tp1605
a(I1486389
I1868
tp1606
a(I382817
I1867
tp1607
a(I1447639
I1867
tp1608
a(I1935388
I1867
tp1609
a(I2256454
I1867
tp1610
a(I103619
I1866
tp1611
a(I1067761
I1866
tp1612
a(I1130863
I1866
tp1613
a(I1225914
I1866
tp1614
a(I1227730
I1866
tp1615
a(I1663467
I1866
tp1616
a(I1979083
I1866
tp1617
a(I2355625
I1866
tp1618
a(I2458372
I1866
tp1619
a(I125765
I1865
tp1620
a(I280260
I1865
tp1621
a(I673187
I1865
tp1622
a(I986794
I1865
tp1623
a(I1574264
I1865
tp1624
a(I2239537
I1864
tp1625
a(I165060
I1863
tp1626
a(I423990
I1863
tp1627
a(I1294471
I1863
tp1628
a(I1446909
I1863
tp1629
a(I1600210
I1863
tp1630
a(I1793717
I1862
tp1631
a(I588285
I1861
tp1632
a(I872591
I1861
tp1633
a(I1147370
I1861
tp1634
a(I1912002
I1861
tp1635
a(I2415196
I1861
tp1636
a(I370735
I1860
tp1637
a(I931475
I1860
tp1638
a(I1002688
I1860
tp1639
a(I1090296
I1860
tp1640
a(I1287939
I1860
tp1641
a(I2115145
I1860
tp1642
a(I539743
I1859
tp1643
a(I1258738
I1859
tp1644
a(I2218750
I1859
tp1645
a(I2331318
I1859
tp1646
a(I1048629
I1858
tp1647
a(I1155747
I1858
tp1648
a(I1468812
I1858
tp1649
a(I1670875
I1858
tp1650
a(I2093105
I1858
tp1651
a(I2469479
I1858
tp1652
a(I590607
I1857
tp1653
a(I674963
I1857
tp1654
a(I683427
I1857
tp1655
a(I1749656
I1857
tp1656
a(I760072
I1856
tp1657
a(I1260854
I1856
tp1658
a(I1708281
I1856
tp1659
a(I1788733
I1856
tp1660
a(I280167
I1855
tp1661
a(I600160
I1855
tp1662
a(I803605
I1855
tp1663
a(I2351580
I1855
tp1664
a(I444566
I1854
tp1665
a(I2407154
I1854
tp1666
a(I9557
I1853
tp1667
a(I1502648
I1853
tp1668
a(I651625
I1852
tp1669
a(I1162805
I1852
tp1670
a(I1876574
I1852
tp1671
a(I2213131
I1852
tp1672
a(I406948
I1851
tp1673
a(I578311
I1851
tp1674
a(I807890
I1851
tp1675
a(I1036350
I1851
tp1676
a(I1432790
I1851
tp1677
a(I2138987
I1851
tp1678
a(I314110
I1850
tp1679
a(I1094767
I1850
tp1680
a(I1710643
I1850
tp1681
a(I1933447
I1850
tp1682
a(I216059
I1849
tp1683
a(I687769
I1849
tp1684
a(I829101
I1849
tp1685
a(I1085991
I1849
tp1686
a(I1357072
I1849
tp1687
a(I2071416
I1849
tp1688
a(I2187693
I1849
tp1689
a(I162348
I1848
tp1690
a(I2406958
I1848
tp1691
a(I1176800
I1847
tp1692
a(I508927
I1846
tp1693
a(I2557596
I1846
tp1694
a(I119287
I1845
tp1695
a(I1035000
I1845
tp1696
a(I1405395
I1845
tp1697
a(I1036991
I1844
tp1698
a(I1079165
I1844
tp1699
a(I1090319
I1844
tp1700
a(I385977
I1843
tp1701
a(I1122364
I1843
tp1702
a(I2356911
I1843
tp1703
a(I1239283
I1842
tp1704
a(I2012563
I1842
tp1705
a(I2014204
I1842
tp1706
a(I2349702
I1842
tp1707
a(I2439795
I1842
tp1708
a(I142492
I1841
tp1709
a(I817464
I1841
tp1710
a(I1319658
I1841
tp1711
a(I1939029
I1841
tp1712
a(I10947
I1840
tp1713
a(I2631950
I1840
tp1714
a(I514829
I1839
tp1715
a(I583086
I1839
tp1716
a(I1183823
I1839
tp1717
a(I1567792
I1839
tp1718
a(I2152856
I1839
tp1719
a(I111736
I1838
tp1720
a(I423361
I1838
tp1721
a(I1161915
I1838
tp1722
a(I530670
I1837
tp1723
a(I1902573
I1837
tp1724
a(I2306984
I1837
tp1725
a(I524672
I1836
tp1726
a(I1073396
I1836
tp1727
a(I474700
I1835
tp1728
a(I2073563
I1835
tp1729
a(I2048858
I1834
tp1730
a(I2633545
I1834
tp1731
a(I105532
I1833
tp1732
a(I912093
I1833
tp1733
a(I1015048
I1833
tp1734
a(I1693002
I1833
tp1735
a(I2539735
I1833
tp1736
a(I40563
I1832
tp1737
a(I272280
I1832
tp1738
a(I390912
I1832
tp1739
a(I592445
I1831
tp1740
a(I750677
I1831
tp1741
a(I1152594
I1831
tp1742
a(I1641072
I1831
tp1743
a(I1823065
I1831
tp1744
a(I1981621
I1830
tp1745
a(I933855
I1829
tp1746
a(I1650580
I1829
tp1747
a(I152063
I1828
tp1748
a(I577109
I1827
tp1749
a(I1116290
I1827
tp1750
a(I1599855
I1827
tp1751
a(I2148252
I1827
tp1752
a(I2521051
I1827
tp1753
a(I1550359
I1826
tp1754
a(I2085613
I1826
tp1755
a(I2101921
I1826
tp1756
a(I2251669
I1826
tp1757
a(I2472682
I1826
tp1758
a(I1006406
I1825
tp1759
a(I1536419
I1825
tp1760
a(I1357786
I1824
tp1761
a(I1909121
I1824
tp1762
a(I418339
I1823
tp1763
a(I1175391
I1823
tp1764
a(I2396324
I1823
tp1765
a(I2487901
I1823
tp1766
a(I2181504
I1822
tp1767
a(I361630
I1821
tp1768
a(I753596
I1821
tp1769
a(I2400645
I1821
tp1770
a(I1058034
I1820
tp1771
a(I1333494
I1820
tp1772
a(I2195071
I1820
tp1773
a(I2497577
I1820
tp1774
a(I76916
I1819
tp1775
a(I449597
I1819
tp1776
a(I1095791
I1819
tp1777
a(I1173570
I1819
tp1778
a(I2412874
I1819
tp1779
a(I582315
I1818
tp1780
a(I1655778
I1818
tp1781
a(I2210867
I1818
tp1782
a(I2355940
I1818
tp1783
a(I1529376
I1817
tp1784
a(I1563429
I1817
tp1785
a(I1599850
I1817
tp1786
a(I1603022
I1817
tp1787
a(I2204746
I1817
tp1788
a(I295718
I1816
tp1789
a(I926900
I1816
tp1790
a(I1533313
I1816
tp1791
a(I1851346
I1816
tp1792
a(I1879665
I1816
tp1793
a(I49355
I1815
tp1794
a(I652324
I1815
tp1795
a(I1054137
I1815
tp1796
a(I1208146
I1815
tp1797
a(I1466323
I1815
tp1798
a(I424202
I1814
tp1799
a(I729393
I1814
tp1800
a(I790459
I1814
tp1801
a(I1116065
I1814
tp1802
a(I1902140
I1814
tp1803
a(I2121379
I1814
tp1804
a(I4597
I1813
tp1805
a(I1257450
I1813
tp1806
a(I1419750
I1812
tp1807
a(I818736
I1811
tp1808
a(I1241060
I1811
tp1809
a(I1377637
I1811
tp1810
a(I1684328
I1811
tp1811
a(I1923886
I1811
tp1812
a(I2077168
I1811
tp1813
a(I707496
I1810
tp1814
a(I760211
I1810
tp1815
a(I2398821
I1810
tp1816
a(I1704311
I1809
tp1817
a(I1733203
I1809
tp1818
a(I2004524
I1809
tp1819
a(I2589121
I1809
tp1820
a(I538668
I1808
tp1821
a(I1025888
I1808
tp1822
a(I1043135
I1808
tp1823
a(I1144887
I1808
tp1824
a(I1224756
I1808
tp1825
a(I1514886
I1808
tp1826
a(I1845415
I1808
tp1827
a(I2412372
I1808
tp1828
a(I2519310
I1808
tp1829
a(I942771
I1807
tp1830
a(I1048069
I1807
tp1831
a(I1806731
I1807
tp1832
a(I2035310
I1807
tp1833
a(I2325737
I1807
tp1834
a(I633722
I1806
tp1835
a(I639533
I1806
tp1836
a(I1918750
I1806
tp1837
a(I479924
I1805
tp1838
a(I519965
I1805
tp1839
a(I1686713
I1805
tp1840
a(I2468305
I1805
tp1841
a(I552356
I1804
tp1842
a(I1203779
I1804
tp1843
a(I1562633
I1804
tp1844
a(I1917540
I1804
tp1845
a(I1920565
I1804
tp1846
a(I818025
I1803
tp1847
a(I2283211
I1803
tp1848
a(I2398373
I1803
tp1849
a(I2572690
I1803
tp1850
a(I504981
I1802
tp1851
a(I663627
I1802
tp1852
a(I953667
I1802
tp1853
a(I1606064
I1802
tp1854
a(I1941703
I1802
tp1855
a(I934993
I1801
tp1856
a(I1717060
I1801
tp1857
a(I241068
I1800
tp1858
a(I467885
I1800
tp1859
a(I1751084
I1800
tp1860
a(I2415589
I1800
tp1861
a(I561184
I1799
tp1862
a(I1096082
I1799
tp1863
a(I1220185
I1799
tp1864
a(I2233782
I1799
tp1865
a(I2336531
I1799
tp1866
a(I2508312
I1799
tp1867
a(I910339
I1798
tp1868
a(I2127496
I1798
tp1869
a(I2457240
I1798
tp1870
a(I1058639
I1797
tp1871
a(I1986816
I1797
tp1872
a(I303002
I1796
tp1873
a(I740929
I1796
tp1874
a(I803137
I1796
tp1875
a(I1571988
I1796
tp1876
a(I1995052
I1796
tp1877
a(I2047178
I1796
tp1878
a(I2151845
I1796
tp1879
a(I908626
I1795
tp1880
a(I1386457
I1795
tp1881
a(I1806991
I1795
tp1882
a(I2534832
I1795
tp1883
a(I659029
I1794
tp1884
a(I1794722
I1794
tp1885
a(I2107839
I1794
tp1886
a(I1206843
I1793
tp1887
a(I1866323
I1793
tp1888
a(I2130859
I1793
tp1889
a(I2427026
I1793
tp1890
a(I101554
I1792
tp1891
a(I731685
I1792
tp1892
a(I732775
I1792
tp1893
a(I1290593
I1792
tp1894
a(I1910320
I1792
tp1895
a(I2111672
I1792
tp1896
a(I1740987
I1791
tp1897
a(I1861500
I1791
tp1898
a(I2142230
I1791
tp1899
a(I694070
I1790
tp1900
a(I923703
I1790
tp1901
a(I2087093
I1790
tp1902
a(I2290263
I1790
tp1903
a(I2482831
I1790
tp1904
a(I39297
I1789
tp1905
a(I1637213
I1789
tp1906
a(I2071383
I1789
tp1907
a(I2620858
I1789
tp1908
a(I39242
I1788
tp1909
a(I719294
I1788
tp1910
a(I901167
I1788
tp1911
a(I1621023
I1788
tp1912
a(I1902609
I1788
tp1913
a(I972616
I1787
tp1914
a(I237449
I1786
tp1915
a(I1194698
I1786
tp1916
a(I2047577
I1786
tp1917
a(I2074458
I1786
tp1918
a(I2291589
I1786
tp1919
a(I2360117
I1786
tp1920
a(I382186
I1785
tp1921
a(I412439
I1785
tp1922
a(I1300036
I1785
tp1923
a(I1531029
I1785
tp1924
a(I2090850
I1785
tp1925
a(I2368686
I1785
tp1926
a(I246980
I1784
tp1927
a(I2053984
I1784
tp1928
a(I2373185
I1784
tp1929
a(I934606
I1782
tp1930
a(I1660384
I1782
tp1931
a(I1842201
I1782
tp1932
a(I2063030
I1782
tp1933
a(I2096942
I1782
tp1934
a(I2097976
I1782
tp1935
a(I2356793
I1782
tp1936
a(I95100
I1781
tp1937
a(I1093671
I1781
tp1938
a(I1168926
I1780
tp1939
a(I2216056
I1780
tp1940
a(I2364018
I1780
tp1941
a(I2402139
I1780
tp1942
a(I733887
I1779
tp1943
a(I2303820
I1779
tp1944
a(I649969
I1778
tp1945
a(I1126555
I1778
tp1946
a(I1616437
I1777
tp1947
a(I1746056
I1777
tp1948
a(I1771053
I1777
tp1949
a(I21364
I1776
tp1950
a(I136058
I1776
tp1951
a(I383404
I1776
tp1952
a(I513501
I1776
tp1953
a(I712609
I1776
tp1954
a(I1112565
I1776
tp1955
a(I939816
I1775
tp1956
a(I684587
I1774
tp1957
a(I850678
I1774
tp1958
a(I1796886
I1774
tp1959
a(I2220239
I1774
tp1960
a(I2461433
I1774
tp1961
a(I1265131
I1773
tp1962
a(I1315201
I1773
tp1963
a(I2126168
I1773
tp1964
a(I14690
I1772
tp1965
a(I362038
I1772
tp1966
a(I682970
I1772
tp1967
a(I703585
I1772
tp1968
a(I1478381
I1772
tp1969
a(I2204694
I1772
tp1970
a(I2271702
I1772
tp1971
a(I2459229
I1772
tp1972
a(I43177
I1771
tp1973
a(I646323
I1771
tp1974
a(I1060658
I1771
tp1975
a(I1242432
I1771
tp1976
a(I2509976
I1771
tp1977
a(I2627800
I1771
tp1978
a(I329475
I1770
tp1979
a(I1531342
I1770
tp1980
a(I124699
I1769
tp1981
a(I320177
I1769
tp1982
a(I1236924
I1769
tp1983
a(I2585641
I1769
tp1984
a(I299857
I1768
tp1985
a(I1084484
I1768
tp1986
a(I1524964
I1768
tp1987
a(I1901876
I1768
tp1988
a(I2235414
I1768
tp1989
a(I2617574
I1768
tp1990
a(I25049
I1767
tp1991
a(I178266
I1767
tp1992
a(I290360
I1767
tp1993
a(I948572
I1767
tp1994
a(I1068610
I1767
tp1995
a(I1419103
I1767
tp1996
a(I1517061
I1767
tp1997
a(I1867416
I1767
tp1998
a(I2068936
I1767
tp1999
a(I2193044
I1767
tp2000
a(I2535229
I1767
tp2001
a(I504401
I1766
tp2002
a(I1550718
I1766
tp2003
a(I2550324
I1766
tp2004
a(I247446
I1765
tp2005
a(I864618
I1765
tp2006
a(I1521272
I1765
tp2007
a(I1532399
I1765
tp2008
a(I1732841
I1765
tp2009
a(I2064713
I1765
tp2010
a(I2396118
I1765
tp2011
a(I280112
I1764
tp2012
a(I377334
I1764
tp2013
a(I606249
I1764
tp2014
a(I1737862
I1764
tp2015
a(I1778714
I1764
tp2016
a(I2216856
I1764
tp2017
a(I2451020
I1764
tp2018
a(I78846
I1763
tp2019
a(I744875
I1763
tp2020
a(I2218269
I1763
tp2021
a(I2420298
I1763
tp2022
a(I682739
I1762
tp2023
a(I817916
I1762
tp2024
a(I2002671
I1762
tp2025
a(I2169283
I1762
tp2026
a(I2215076
I1762
tp2027
a(I2437021
I1762
tp2028
a(I1194467
I1761
tp2029
a(I1444287
I1761
tp2030
a(I32885
I1760
tp2031
a(I2231930
I1760
tp2032
a(I2351276
I1760
tp2033
a(I2646574
I1760
tp2034
a(I206272
I1759
tp2035
a(I550883
I1759
tp2036
a(I1110479
I1759
tp2037
a(I2203244
I1759
tp2038
a(I412805
I1758
tp2039
a(I859380
I1758
tp2040
a(I1309057
I1758
tp2041
a(I2147545
I1758
tp2042
a(I2442028
I1758
tp2043
a(I1423956
I1757
tp2044
a(I1561960
I1757
tp2045
a(I1581343
I1757
tp2046
a(I1724806
I1757
tp2047
a(I1348148
I1756
tp2048
a(I2182532
I1756
tp2049
a(I50123
I1755
tp2050
a(I734347
I1755
tp2051
a(I276869
I1754
tp2052
a(I437955
I1754
tp2053
a(I1104997
I1754
tp2054
a(I1922670
I1754
tp2055
a(I392651
I1753
tp2056
a(I1187949
I1753
tp2057
a(I1277779
I1753
tp2058
a(I2204336
I1753
tp2059
a(I2593441
I1752
tp2060
a(I2600927
I1752
tp2061
a(I104237
I1751
tp2062
a(I330922
I1751
tp2063
a(I596918
I1751
tp2064
a(I691878
I1751
tp2065
a(I1468007
I1751
tp2066
a(I1941862
I1751
tp2067
a(I2039521
I1751
tp2068
a(I652121
I1750
tp2069
a(I1262887
I1750
tp2070
a(I1483664
I1750
tp2071
a(I1849620
I1750
tp2072
a(I1890844
I1750
tp2073
a(I813594
I1749
tp2074
a(I1068988
I1749
tp2075
a(I1371238
I1748
tp2076
a(I2017112
I1748
tp2077
a(I2168178
I1748
tp2078
a(I52352
I1747
tp2079
a(I332079
I1747
tp2080
a(I505109
I1747
tp2081
a(I620714
I1747
tp2082
a(I1486911
I1747
tp2083
a(I2076631
I1747
tp2084
a(I70893
I1746
tp2085
a(I372095
I1746
tp2086
a(I838612
I1746
tp2087
a(I1532058
I1746
tp2088
a(I1552084
I1746
tp2089
a(I1570077
I1746
tp2090
a(I508323
I1745
tp2091
a(I674927
I1745
tp2092
a(I919160
I1745
tp2093
a(I1385580
I1745
tp2094
a(I1851429
I1745
tp2095
a(I2328701
I1745
tp2096
a(I2469190
I1745
tp2097
a(I538178
I1744
tp2098
a(I609742
I1744
tp2099
a(I1107860
I1744
tp2100
a(I487866
I1743
tp2101
a(I869426
I1743
tp2102
a(I2201323
I1743
tp2103
a(I2204444
I1743
tp2104
a(I748028
I1742
tp2105
a(I920168
I1742
tp2106
a(I1154027
I1742
tp2107
a(I1271816
I1742
tp2108
a(I1287017
I1742
tp2109
a(I1632784
I1742
tp2110
a(I1634668
I1742
tp2111
a(I1303306
I1741
tp2112
a(I1313714
I1741
tp2113
a(I2637755
I1741
tp2114
a(I407314
I1740
tp2115
a(I2222576
I1740
tp2116
a(I2385481
I1740
tp2117
a(I798262
I1739
tp2118
a(I942007
I1739
tp2119
a(I1298190
I1739
tp2120
a(I1725003
I1739
tp2121
a(I2188684
I1739
tp2122
a(I2315130
I1739
tp2123
a(I360264
I1738
tp2124
a(I499718
I1738
tp2125
a(I873556
I1738
tp2126
a(I1225682
I1738
tp2127
a(I2201302
I1738
tp2128
a(I586724
I1737
tp2129
a(I933207
I1737
tp2130
a(I1407746
I1737
tp2131
a(I1437139
I1737
tp2132
a(I1718526
I1737
tp2133
a(I1863477
I1737
tp2134
a(I1961619
I1737
tp2135
a(I2167214
I1737
tp2136
a(I2531111
I1737
tp2137
a(I104724
I1736
tp2138
a(I442234
I1736
tp2139
a(I484675
I1736
tp2140
a(I1397082
I1736
tp2141
a(I1434507
I1736
tp2142
a(I1483654
I1736
tp2143
a(I1973503
I1736
tp2144
a(I2470021
I1736
tp2145
a(I2629660
I1736
tp2146
a(I128040
I1735
tp2147
a(I268719
I1735
tp2148
a(I431067
I1735
tp2149
a(I962098
I1735
tp2150
a(I2339981
I1735
tp2151
a(I833951
I1734
tp2152
a(I857778
I1734
tp2153
a(I1172958
I1734
tp2154
a(I1259776
I1734
tp2155
a(I1715879
I1734
tp2156
a(I1894544
I1734
tp2157
a(I2338157
I1734
tp2158
a(I1245143
I1733
tp2159
a(I1988375
I1733
tp2160
a(I2113709
I1733
tp2161
a(I2314956
I1733
tp2162
a(I2577867
I1733
tp2163
a(I714802
I1732
tp2164
a(I948109
I1732
tp2165
a(I1351898
I1732
tp2166
a(I137602
I1731
tp2167
a(I349411
I1731
tp2168
a(I645373
I1731
tp2169
a(I1951741
I1731
tp2170
a(I45207
I1730
tp2171
a(I361702
I1730
tp2172
a(I1413434
I1730
tp2173
a(I1771587
I1730
tp2174
a(I1961753
I1730
tp2175
a(I174783
I1729
tp2176
a(I537912
I1729
tp2177
a(I993550
I1729
tp2178
a(I1802414
I1729
tp2179
a(I2023200
I1729
tp2180
a(I1102923
I1728
tp2181
a(I1106982
I1728
tp2182
a(I1606739
I1728
tp2183
a(I2100306
I1728
tp2184
a(I2407453
I1728
tp2185
a(I631747
I1727
tp2186
a(I672097
I1727
tp2187
a(I1670329
I1727
tp2188
a(I376600
I1726
tp2189
a(I2213
I1725
tp2190
a(I350145
I1725
tp2191
a(I494440
I1725
tp2192
a(I612653
I1725
tp2193
a(I633570
I1725
tp2194
a(I1158822
I1725
tp2195
a(I1221563
I1725
tp2196
a(I1470972
I1725
tp2197
a(I1577480
I1725
tp2198
a(I1617915
I1725
tp2199
a(I2160527
I1725
tp2200
a(I279265
I1724
tp2201
a(I1065402
I1724
tp2202
a(I1071510
I1724
tp2203
a(I1241958
I1724
tp2204
a(I1387049
I1724
tp2205
a(I1583566
I1724
tp2206
a(I1720041
I1724
tp2207
a(I2608542
I1724
tp2208
a(I100712
I1723
tp2209
a(I853135
I1723
tp2210
a(I940016
I1723
tp2211
a(I2496479
I1723
tp2212
a(I2536943
I1723
tp2213
a(I1048389
I1722
tp2214
a(I679042
I1721
tp2215
a(I913814
I1721
tp2216
a(I1412213
I1721
tp2217
a(I1878548
I1721
tp2218
a(I1922072
I1721
tp2219
a(I35036
I1720
tp2220
a(I793754
I1720
tp2221
a(I2487603
I1720
tp2222
a(I305604
I1719
tp2223
a(I497196
I1719
tp2224
a(I1915014
I1719
tp2225
a(I2098983
I1719
tp2226
a(I13432
I1718
tp2227
a(I289710
I1718
tp2228
a(I863227
I1718
tp2229
a(I1119020
I1718
tp2230
a(I1460630
I1718
tp2231
a(I1819758
I1718
tp2232
a(I2145575
I1718
tp2233
a(I80354
I1717
tp2234
a(I1210904
I1717
tp2235
a(I1838390
I1717
tp2236
a(I2037890
I1717
tp2237
a(I818816
I1716
tp2238
a(I1481961
I1716
tp2239
a(I1765734
I1716
tp2240
a(I1860673
I1716
tp2241
a(I2292140
I1716
tp2242
a(I2633357
I1716
tp2243
a(I273019
I1715
tp2244
a(I299805
I1715
tp2245
a(I525666
I1715
tp2246
a(I659285
I1715
tp2247
a(I1977824
I1715
tp2248
a(I2179335
I1715
tp2249
a(I2336079
I1715
tp2250
a(I1003143
I1714
tp2251
a(I1458814
I1714
tp2252
a(I2177085
I1714
tp2253
a(I2555055
I1714
tp2254
a(I2631815
I1714
tp2255
a(I437239
I1713
tp2256
a(I1266708
I1713
tp2257
a(I2480287
I1713
tp2258
a(I2571175
I1713
tp2259
a(I383702
I1712
tp2260
a(I2079036
I1712
tp2261
a(I59913
I1711
tp2262
a(I209494
I1711
tp2263
a(I599145
I1711
tp2264
a(I827459
I1711
tp2265
a(I1214181
I1711
tp2266
a(I1517519
I1711
tp2267
a(I2115977
I1711
tp2268
a(I2593093
I1711
tp2269
a(I774088
I1710
tp2270
a(I931565
I1710
tp2271
a(I1166090
I1710
tp2272
a(I1295471
I1710
tp2273
a(I2239213
I1710
tp2274
a(I2322355
I1709
tp2275
a(I2446344
I1709
tp2276
a(I2509293
I1709
tp2277
a(I129796
I1708
tp2278
a(I586694
I1708
tp2279
a(I1267805
I1708
tp2280
a(I1551042
I1708
tp2281
a(I1655656
I1708
tp2282
a(I1802059
I1708
tp2283
a(I2165353
I1708
tp2284
a(I2594995
I1708
tp2285
a(I213750
I1707
tp2286
a(I679869
I1707
tp2287
a(I1462488
I1707
tp2288
a(I2482502
I1707
tp2289
a(I230211
I1706
tp2290
a(I708047
I1706
tp2291
a(I712664
I1706
tp2292
a(I775171
I1706
tp2293
a(I962564
I1706
tp2294
a(I697054
I1705
tp2295
a(I879912
I1705
tp2296
a(I948801
I1705
tp2297
a(I1479892
I1705
tp2298
a(I1739230
I1705
tp2299
a(I2194719
I1705
tp2300
a(I2307327
I1705
tp2301
a(I1313129
I1704
tp2302
a(I278223
I1703
tp2303
a(I875723
I1703
tp2304
a(I895641
I1703
tp2305
a(I958634
I1703
tp2306
a(I969772
I1703
tp2307
a(I1055009
I1703
tp2308
a(I1171523
I1703
tp2309
a(I1352912
I1703
tp2310
a(I1388216
I1703
tp2311
a(I1710306
I1703
tp2312
a(I1797483
I1703
tp2313
a(I1854660
I1703
tp2314
a(I2105602
I1703
tp2315
a(I125687
I1702
tp2316
a(I199769
I1702
tp2317
a(I576723
I1702
tp2318
a(I611049
I1702
tp2319
a(I647111
I1702
tp2320
a(I1656130
I1702
tp2321
a(I345704
I1701
tp2322
a(I625067
I1701
tp2323
a(I915926
I1701
tp2324
a(I1704416
I1701
tp2325
a(I1769920
I1701
tp2326
a(I2036838
I1701
tp2327
a(I2151468
I1701
tp2328
a(I140498
I1700
tp2329
a(I1705134
I1700
tp2330
a(I2287125
I1700
tp2331
a(I1476383
I1699
tp2332
a(I1579340
I1699
tp2333
a(I2294328
I1699
tp2334
a(I2051372
I1698
tp2335
a(I2097548
I1698
tp2336
a(I808604
I1697
tp2337
a(I1564649
I1697
tp2338
a(I1977209
I1697
tp2339
a(I2424683
I1697
tp2340
a(I579352
I1696
tp2341
a(I618832
I1696
tp2342
a(I1431636
I1696
tp2343
a(I2075165
I1696
tp2344
a(I2632990
I1696
tp2345
a(I172217
I1695
tp2346
a(I359681
I1695
tp2347
a(I487949
I1695
tp2348
a(I848193
I1695
tp2349
a(I972914
I1695
tp2350
a(I1000779
I1695
tp2351
a(I1306304
I1695
tp2352
a(I1344086
I1695
tp2353
a(I1772362
I1695
tp2354
a(I2011043
I1695
tp2355
a(I501420
I1694
tp2356
a(I1877143
I1694
tp2357
a(I2327365
I1694
tp2358
a(I1900854
I1693
tp2359
a(I2071037
I1693
tp2360
a(I2176304
I1693
tp2361
a(I88283
I1692
tp2362
a(I640464
I1692
tp2363
a(I1292631
I1692
tp2364
a(I1400108
I1692
tp2365
a(I2483371
I1692
tp2366
a(I480305
I1691
tp2367
a(I507498
I1691
tp2368
a(I1772215
I1691
tp2369
a(I2360158
I1691
tp2370
a(I2467784
I1691
tp2371
a(I829575
I1690
tp2372
a(I1516936
I1690
tp2373
a(I1576405
I1690
tp2374
a(I2113596
I1690
tp2375
a(I2465894
I1690
tp2376
a(I876661
I1689
tp2377
a(I1002367
I1689
tp2378
a(I1014412
I1689
tp2379
a(I1529449
I1689
tp2380
a(I2641668
I1689
tp2381
a(I181592
I1688
tp2382
a(I224252
I1688
tp2383
a(I1722187
I1688
tp2384
a(I1840584
I1688
tp2385
a(I717972
I1687
tp2386
a(I1739615
I1687
tp2387
a(I1902417
I1687
tp2388
a(I979155
I1686
tp2389
a(I1505821
I1686
tp2390
a(I1732840
I1686
tp2391
a(I2592591
I1686
tp2392
a(I212794
I1685
tp2393
a(I214254
I1685
tp2394
a(I1349717
I1685
tp2395
a(I1714116
I1685
tp2396
a(I2055243
I1685
tp2397
a(I592277
I1684
tp2398
a(I995925
I1684
tp2399
a(I1344791
I1684
tp2400
a(I1356239
I1684
tp2401
a(I1545694
I1684
tp2402
a(I1973114
I1684
tp2403
a(I897732
I1683
tp2404
a(I2186920
I1683
tp2405
a(I2330565
I1683
tp2406
a(I2421395
I1683
tp2407
a(I516110
I1682
tp2408
a(I1323848
I1682
tp2409
a(I393945
I1681
tp2410
a(I1224296
I1681
tp2411
a(I2164729
I1681
tp2412
a(I1407227
I1680
tp2413
a(I1831361
I1680
tp2414
a(I1868998
I1680
tp2415
a(I287545
I1679
tp2416
a(I532653
I1679
tp2417
a(I1528418
I1679
tp2418
a(I70483
I1678
tp2419
a(I342877
I1678
tp2420
a(I650771
I1678
tp2421
a(I1039760
I1678
tp2422
a(I1328954
I1678
tp2423
a(I1508625
I1678
tp2424
a(I675468
I1677
tp2425
a(I1527527
I1677
tp2426
a(I2627394
I1677
tp2427
a(I50214
I1676
tp2428
a(I383952
I1676
tp2429
a(I1065779
I1676
tp2430
a(I1980593
I1676
tp2431
a(I2503230
I1676
tp2432
a(I2644964
I1676
tp2433
a(I829466
I1675
tp2434
a(I1423249
I1675
tp2435
a(I1754537
I1675
tp2436
a(I2337144
I1675
tp2437
a(I305111
I1674
tp2438
a(I1326994
I1674
tp2439
a(I1607747
I1674
tp2440
a(I2354764
I1674
tp2441
a(I2397061
I1674
tp2442
a(I406375
I1673
tp2443
a(I923325
I1673
tp2444
a(I1000387
I1673
tp2445
a(I1298173
I1673
tp2446
a(I1553532
I1673
tp2447
a(I1621025
I1673
tp2448
a(I256465
I1672
tp2449
a(I541135
I1672
tp2450
a(I555509
I1672
tp2451
a(I2351402
I1672
tp2452
a(I2424335
I1672
tp2453
a(I525945
I1671
tp2454
a(I1477154
I1671
tp2455
a(I1727531
I1671
tp2456
a(I1869907
I1671
tp2457
a(I2284673
I1671
tp2458
a(I181207
I1670
tp2459
a(I1546371
I1670
tp2460
a(I1898310
I1670
tp2461
a(I2415495
I1670
tp2462
a(I1213587
I1669
tp2463
a(I1460561
I1669
tp2464
a(I1470420
I1669
tp2465
a(I1592816
I1669
tp2466
a(I1666057
I1669
tp2467
a(I1854193
I1669
tp2468
a(I2320177
I1669
tp2469
a(I210185
I1668
tp2470
a(I607188
I1668
tp2471
a(I2053910
I1668
tp2472
a(I871687
I1667
tp2473
a(I1458868
I1667
tp2474
a(I1742759
I1667
tp2475
a(I1857889
I1667
tp2476
a(I2304924
I1667
tp2477
a(I2534532
I1667
tp2478
a(I642089
I1666
tp2479
a(I1272479
I1666
tp2480
a(I1387099
I1666
tp2481
a(I1630967
I1666
tp2482
a(I1862272
I1666
tp2483
a(I2036973
I1666
tp2484
a(I152955
I1665
tp2485
a(I357056
I1665
tp2486
a(I829708
I1665
tp2487
a(I1198632
I1665
tp2488
a(I1820824
I1665
tp2489
a(I282427
I1664
tp2490
a(I1085207
I1664
tp2491
a(I1316671
I1664
tp2492
a(I1979787
I1664
tp2493
a(I2002196
I1664
tp2494
a(I2387919
I1664
tp2495
a(I257923
I1663
tp2496
a(I281729
I1663
tp2497
a(I333573
I1663
tp2498
a(I511847
I1663
tp2499
a(I709755
I1663
tp2500
a(I1118220
I1663
tp2501
a(I1128164
I1663
tp2502
a(I1760492
I1663
tp2503
a(I1945838
I1663
tp2504
a(I767958
I1662
tp2505
a(I1181784
I1662
tp2506
a(I1694750
I1662
tp2507
a(I2413595
I1662
tp2508
a(I2520513
I1662
tp2509
a(I2603059
I1662
tp2510
a(I302425
I1661
tp2511
a(I994838
I1661
tp2512
a(I1737974
I1661
tp2513
a(I2139083
I1661
tp2514
a(I2490731
I1661
tp2515
a(I73103
I1660
tp2516
a(I769162
I1660
tp2517
a(I1013603
I1660
tp2518
a(I1302968
I1660
tp2519
a(I1706645
I1660
tp2520
a(I2429310
I1660
tp2521
a(I666611
I1659
tp2522
a(I1163123
I1659
tp2523
a(I1176462
I1659
tp2524
a(I1549174
I1659
tp2525
a(I1633211
I1659
tp2526
a(I1671223
I1659
tp2527
a(I760924
I1658
tp2528
a(I1354717
I1658
tp2529
a(I1855394
I1658
tp2530
a(I1918987
I1658
tp2531
a(I1928597
I1658
tp2532
a(I1997103
I1658
tp2533
a(I2386059
I1658
tp2534
a(I2440242
I1658
tp2535
a(I2645476
I1658
tp2536
a(I481049
I1657
tp2537
a(I1602924
I1657
tp2538
a(I1645377
I1656
tp2539
a(I2125582
I1656
tp2540
a(I2185058
I1656
tp2541
a(I2403601
I1656
tp2542
a(I356035
I1655
tp2543
a(I923103
I1655
tp2544
a(I2396765
I1655
tp2545
a(I2530108
I1655
tp2546
a(I541557
I1654
tp2547
a(I571538
I1654
tp2548
a(I584100
I1654
tp2549
a(I930113
I1654
tp2550
a(I1176119
I1654
tp2551
a(I1633009
I1654
tp2552
a(I1880766
I1654
tp2553
a(I2318762
I1654
tp2554
a(I101564
I1653
tp2555
a(I213486
I1653
tp2556
a(I249471
I1653
tp2557
a(I258675
I1653
tp2558
a(I385553
I1653
tp2559
a(I1056998
I1653
tp2560
a(I1267783
I1653
tp2561
a(I1511623
I1653
tp2562
a(I1532433
I1653
tp2563
a(I1579413
I1653
tp2564
a(I1640271
I1653
tp2565
a(I1654721
I1653
tp2566
a(I1918704
I1653
tp2567
a(I2495253
I1653
tp2568
a(I595054
I1652
tp2569
a(I862644
I1652
tp2570
a(I1648423
I1652
tp2571
a(I1697790
I1652
tp2572
a(I1970337
I1652
tp2573
a(I185495
I1651
tp2574
a(I384710
I1651
tp2575
a(I1041552
I1651
tp2576
a(I273945
I1650
tp2577
a(I465885
I1650
tp2578
a(I613651
I1650
tp2579
a(I1328011
I1650
tp2580
a(I337793
I1649
tp2581
a(I476765
I1649
tp2582
a(I1145003
I1649
tp2583
a(I1540380
I1649
tp2584
a(I1718527
I1649
tp2585
a(I1884816
I1649
tp2586
a(I2057611
I1649
tp2587
a(I2401136
I1649
tp2588
a(I387633
I1648
tp2589
a(I459145
I1648
tp2590
a(I1731106
I1648
tp2591
a(I1890809
I1648
tp2592
a(I2128219
I1648
tp2593
a(I2621150
I1648
tp2594
a(I37797
I1647
tp2595
a(I200098
I1647
tp2596
a(I443193
I1647
tp2597
a(I1078800
I1647
tp2598
a(I1104884
I1647
tp2599
a(I2136912
I1647
tp2600
a(I2138857
I1647
tp2601
a(I1406633
I1646
tp2602
a(I1719990
I1646
tp2603
a(I270174
I1645
tp2604
a(I1229545
I1645
tp2605
a(I1534677
I1645
tp2606
a(I1746378
I1645
tp2607
a(I74427
I1644
tp2608
a(I1020195
I1644
tp2609
a(I2233293
I1644
tp2610
a(I2405311
I1644
tp2611
a(I266172
I1643
tp2612
a(I391012
I1643
tp2613
a(I767816
I1643
tp2614
a(I823101
I1643
tp2615
a(I896309
I1643
tp2616
a(I1322839
I1643
tp2617
a(I1829594
I1643
tp2618
a(I1830265
I1643
tp2619
a(I319119
I1642
tp2620
a(I327577
I1642
tp2621
a(I382633
I1642
tp2622
a(I542848
I1641
tp2623
a(I794215
I1641
tp2624
a(I933837
I1641
tp2625
a(I982709
I1641
tp2626
a(I2192840
I1641
tp2627
a(I2550838
I1641
tp2628
a(I2604824
I1641
tp2629
a(I1467105
I1640
tp2630
a(I1502539
I1640
tp2631
a(I269689
I1639
tp2632
a(I507873
I1639
tp2633
a(I1127274
I1639
tp2634
a(I2525542
I1639
tp2635
a(I8121
I1638
tp2636
a(I364618
I1638
tp2637
a(I465414
I1638
tp2638
a(I1094850
I1638
tp2639
a(I1939221
I1638
tp2640
a(I1966687
I1638
tp2641
a(I2051538
I1638
tp2642
a(I2059738
I1638
tp2643
a(I2452906
I1638
tp2644
a(I2556523
I1638
tp2645
a(I33430
I1637
tp2646
a(I910244
I1637
tp2647
a(I1215094
I1637
tp2648
a(I2115908
I1637
tp2649
a(I2234535
I1637
tp2650
a(I2259898
I1637
tp2651
a(I2266166
I1637
tp2652
a(I541376
I1636
tp2653
a(I895443
I1636
tp2654
a(I1935981
I1636
tp2655
a(I2274438
I1636
tp2656
a(I2406150
I1636
tp2657
a(I2548965
I1636
tp2658
a(I692048
I1635
tp2659
a(I1312635
I1635
tp2660
a(I2219287
I1635
tp2661
a(I20774
I1634
tp2662
a(I1088988
I1634
tp2663
a(I1196131
I1634
tp2664
a(I1279939
I1634
tp2665
a(I1851867
I1634
tp2666
a(I2078245
I1634
tp2667
a(I2107198
I1634
tp2668
a(I1546549
I1633
tp2669
a(I1795694
I1633
tp2670
a(I1838526
I1633
tp2671
a(I2403533
I1633
tp2672
a(I2465288
I1633
tp2673
a(I454519
I1632
tp2674
a(I780334
I1632
tp2675
a(I1597736
I1632
tp2676
a(I2610031
I1632
tp2677
a(I295708
I1631
tp2678
a(I453239
I1631
tp2679
a(I460419
I1631
tp2680
a(I1691090
I1631
tp2681
a(I1750785
I1631
tp2682
a(I2092076
I1631
tp2683
a(I3458
I1630
tp2684
a(I381828
I1630
tp2685
a(I638998
I1630
tp2686
a(I731217
I1630
tp2687
a(I819822
I1630
tp2688
a(I965381
I1630
tp2689
a(I1510943
I1630
tp2690
a(I1937631
I1630
tp2691
a(I2025463
I1630
tp2692
a(I2073799
I1630
tp2693
a(I2371144
I1630
tp2694
a(I6629
I1629
tp2695
a(I779492
I1629
tp2696
a(I2073205
I1629
tp2697
a(I2496628
I1629
tp2698
a(I158607
I1628
tp2699
a(I321679
I1628
tp2700
a(I675111
I1628
tp2701
a(I766982
I1628
tp2702
a(I1375880
I1628
tp2703
a(I1439261
I1628
tp2704
a(I1990316
I1628
tp2705
a(I2241438
I1628
tp2706
a(I2452132
I1628
tp2707
a(I527953
I1627
tp2708
a(I602642
I1627
tp2709
a(I1058930
I1627
tp2710
a(I1120721
I1627
tp2711
a(I1725226
I1627
tp2712
a(I1839500
I1627
tp2713
a(I2573509
I1627
tp2714
a(I2045981
I1626
tp2715
a(I239518
I1625
tp2716
a(I560579
I1625
tp2717
a(I761476
I1625
tp2718
a(I1215709
I1625
tp2719
a(I1922925
I1625
tp2720
a(I790348
I1624
tp2721
a(I827380
I1624
tp2722
a(I1057247
I1624
tp2723
a(I1114362
I1624
tp2724
a(I1295669
I1624
tp2725
a(I1501943
I1624
tp2726
a(I1602339
I1624
tp2727
a(I1953981
I1624
tp2728
a(I2203809
I1624
tp2729
a(I2279366
I1624
tp2730
a(I2416772
I1624
tp2731
a(I2446442
I1624
tp2732
a(I212479
I1623
tp2733
a(I472332
I1623
tp2734
a(I591207
I1623
tp2735
a(I653361
I1623
tp2736
a(I730016
I1623
tp2737
a(I1044742
I1623
tp2738
a(I1115285
I1623
tp2739
a(I1123394
I1623
tp2740
a(I1723621
I1623
tp2741
a(I1813076
I1623
tp2742
a(I170178
I1622
tp2743
a(I213704
I1622
tp2744
a(I318939
I1622
tp2745
a(I324162
I1622
tp2746
a(I411396
I1622
tp2747
a(I859453
I1622
tp2748
a(I1289515
I1622
tp2749
a(I2274452
I1622
tp2750
a(I2394623
I1622
tp2751
a(I2445470
I1622
tp2752
a(I2565354
I1622
tp2753
a(I124342
I1621
tp2754
a(I936307
I1621
tp2755
a(I1081292
I1621
tp2756
a(I1262523
I1621
tp2757
a(I1982465
I1621
tp2758
a(I2387707
I1621
tp2759
a(I290342
I1620
tp2760
a(I301019
I1620
tp2761
a(I947104
I1620
tp2762
a(I1331887
I1620
tp2763
a(I1523710
I1620
tp2764
a(I150038
I1619
tp2765
a(I193560
I1619
tp2766
a(I313419
I1619
tp2767
a(I805207
I1619
tp2768
a(I841432
I1619
tp2769
a(I1107099
I1619
tp2770
a(I2322250
I1619
tp2771
a(I303969
I1618
tp2772
a(I921783
I1618
tp2773
a(I927240
I1618
tp2774
a(I1089664
I1618
tp2775
a(I1198828
I1618
tp2776
a(I2215021
I1618
tp2777
a(I2327122
I1618
tp2778
a(I2554942
I1618
tp2779
a(I294040
I1617
tp2780
a(I328642
I1617
tp2781
a(I481523
I1617
tp2782
a(I547341
I1617
tp2783
a(I654022
I1617
tp2784
a(I793892
I1617
tp2785
a(I914508
I1617
tp2786
a(I1778011
I1617
tp2787
a(I1925969
I1617
tp2788
a(I2118863
I1617
tp2789
a(I2472638
I1617
tp2790
a(I227151
I1616
tp2791
a(I345035
I1616
tp2792
a(I363868
I1616
tp2793
a(I593252
I1616
tp2794
a(I838773
I1616
tp2795
a(I1337293
I1616
tp2796
a(I1643961
I1616
tp2797
a(I338723
I1615
tp2798
a(I1211016
I1615
tp2799
a(I1588471
I1615
tp2800
a(I1832243
I1615
tp2801
a(I2045949
I1615
tp2802
a(I205438
I1614
tp2803
a(I1056238
I1614
tp2804
a(I1071582
I1614
tp2805
a(I237672
I1613
tp2806
a(I279960
I1613
tp2807
a(I692235
I1613
tp2808
a(I906574
I1613
tp2809
a(I1114884
I1613
tp2810
a(I1132514
I1613
tp2811
a(I1152249
I1613
tp2812
a(I1798758
I1613
tp2813
a(I350009
I1612
tp2814
a(I2046649
I1612
tp2815
a(I2141089
I1612
tp2816
a(I2512128
I1612
tp2817
a(I690754
I1611
tp2818
a(I1199011
I1611
tp2819
a(I1352747
I1611
tp2820
a(I1824389
I1611
tp2821
a(I1850353
I1611
tp2822
a(I2539243
I1611
tp2823
a(I2590515
I1611
tp2824
a(I2590895
I1611
tp2825
a(I290182
I1610
tp2826
a(I1057513
I1610
tp2827
a(I1373956
I1610
tp2828
a(I2283695
I1610
tp2829
a(I2572942
I1610
tp2830
a(I415253
I1609
tp2831
a(I851111
I1609
tp2832
a(I2259174
I1609
tp2833
a(I2334283
I1609
tp2834
a(I454329
I1608
tp2835
a(I922332
I1608
tp2836
a(I964916
I1608
tp2837
a(I1402612
I1608
tp2838
a(I1486253
I1608
tp2839
a(I1583129
I1608
tp2840
a(I1871161
I1608
tp2841
a(I1883721
I1608
tp2842
a(I2301246
I1608
tp2843
a(I443447
I1607
tp2844
a(I904898
I1607
tp2845
a(I1024189
I1607
tp2846
a(I1759886
I1607
tp2847
a(I1961675
I1607
tp2848
a(I2397204
I1607
tp2849
a(I1430920
I1606
tp2850
a(I2321435
I1606
tp2851
a(I2360796
I1606
tp2852
a(I2389860
I1606
tp2853
a(I2624159
I1606
tp2854
a(I590311
I1605
tp2855
a(I763193
I1605
tp2856
a(I1079598
I1605
tp2857
a(I1862392
I1605
tp2858
a(I374380
I1604
tp2859
a(I633738
I1604
tp2860
a(I658645
I1604
tp2861
a(I1079613
I1604
tp2862
a(I1599029
I1604
tp2863
a(I1833866
I1604
tp2864
a(I1897386
I1604
tp2865
a(I2553056
I1604
tp2866
a(I836150
I1603
tp2867
a(I874505
I1603
tp2868
a(I1403184
I1603
tp2869
a(I1505732
I1603
tp2870
a(I1776870
I1603
tp2871
a(I558634
I1602
tp2872
a(I892254
I1602
tp2873
a(I1510806
I1602
tp2874
a(I1734270
I1602
tp2875
a(I393966
I1601
tp2876
a(I871675
I1601
tp2877
a(I983523
I1601
tp2878
a(I1003874
I1601
tp2879
a(I1155404
I1601
tp2880
a(I1457134
I1601
tp2881
a(I1666213
I1601
tp2882
a(I1848868
I1601
tp2883
a(I2103116
I1601
tp2884
a(I2337014
I1601
tp2885
a(I808435
I1600
tp2886
a(I943436
I1600
tp2887
a(I1169361
I1600
tp2888
a(I1408280
I1600
tp2889
a(I1423310
I1600
tp2890
a(I1875533
I1600
tp2891
a(I2158495
I1600
tp2892
a(I270523
I1599
tp2893
a(I364376
I1599
tp2894
a(I1380947
I1599
tp2895
a(I1442150
I1599
tp2896
a(I1686270
I1599
tp2897
a(I2184768
I1599
tp2898
a(I29815
I1598
tp2899
a(I705645
I1598
tp2900
a(I1498767
I1598
tp2901
a(I1775437
I1598
tp2902
a(I1811259
I1598
tp2903
a(I2090902
I1598
tp2904
a(I2112089
I1598
tp2905
a(I44490
I1597
tp2906
a(I118341
I1597
tp2907
a(I372743
I1597
tp2908
a(I383442
I1597
tp2909
a(I431487
I1597
tp2910
a(I719725
I1597
tp2911
a(I1553659
I1597
tp2912
a(I1753201
I1597
tp2913
a(I2360767
I1597
tp2914
a(I2473345
I1597
tp2915
a(I2634074
I1597
tp2916
a(I397923
I1596
tp2917
a(I982098
I1596
tp2918
a(I2091625
I1596
tp2919
a(I2315135
I1596
tp2920
a(I219481
I1595
tp2921
a(I275282
I1595
tp2922
a(I688455
I1595
tp2923
a(I1835359
I1595
tp2924
a(I2316252
I1595
tp2925
a(I888617
I1594
tp2926
a(I1790903
I1594
tp2927
a(I1827071
I1594
tp2928
a(I1841056
I1594
tp2929
a(I1908051
I1594
tp2930
a(I2121765
I1594
tp2931
a(I2133771
I1594
tp2932
a(I513933
I1593
tp2933
a(I790471
I1593
tp2934
a(I942513
I1593
tp2935
a(I1077173
I1593
tp2936
a(I1222167
I1593
tp2937
a(I2361318
I1593
tp2938
a(I510438
I1592
tp2939
a(I811104
I1592
tp2940
a(I972267
I1592
tp2941
a(I1014889
I1592
tp2942
a(I1017698
I1592
tp2943
a(I1283137
I1592
tp2944
a(I1344624
I1592
tp2945
a(I1970653
I1592
tp2946
a(I456367
I1591
tp2947
a(I657606
I1591
tp2948
a(I684648
I1591
tp2949
a(I836050
I1591
tp2950
a(I1118587
I1591
tp2951
a(I1275089
I1591
tp2952
a(I1742103
I1591
tp2953
a(I2398509
I1591
tp2954
a(I2548453
I1591
tp2955
a(I206954
I1590
tp2956
a(I351328
I1590
tp2957
a(I413855
I1590
tp2958
a(I472452
I1590
tp2959
a(I826444
I1590
tp2960
a(I831494
I1590
tp2961
a(I832536
I1590
tp2962
a(I1641213
I1590
tp2963
a(I1822560
I1590
tp2964
a(I2387904
I1590
tp2965
a(I627975
I1589
tp2966
a(I766064
I1589
tp2967
a(I896279
I1589
tp2968
a(I917571
I1589
tp2969
a(I1154813
I1589
tp2970
a(I1885042
I1589
tp2971
a(I2246923
I1589
tp2972
a(I2270041
I1589
tp2973
a(I292335
I1588
tp2974
a(I848872
I1588
tp2975
a(I1330841
I1588
tp2976
a(I1359770
I1588
tp2977
a(I1844813
I1588
tp2978
a(I2286380
I1588
tp2979
a(I2434527
I1588
tp2980
a(I2628763
I1588
tp2981
a(I107840
I1587
tp2982
a(I205023
I1587
tp2983
a(I442276
I1587
tp2984
a(I1769993
I1587
tp2985
a(I1965634
I1587
tp2986
a(I2446246
I1587
tp2987
a(I793113
I1586
tp2988
a(I816549
I1586
tp2989
a(I994370
I1586
tp2990
a(I1193468
I1586
tp2991
a(I155620
I1585
tp2992
a(I641719
I1585
tp2993
a(I763240
I1585
tp2994
a(I969879
I1585
tp2995
a(I1053421
I1585
tp2996
a(I1483838
I1585
tp2997
a(I1907373
I1585
tp2998
a(I1908103
I1585
tp2999
a(I2094599
I1585
tp3000
a(I2401693
I1585
tp3001
a(I840419
I1584
tp3002
a(I1834123
I1584
tp3003
a(I2516156
I1584
tp3004
a(I889674
I1583
tp3005
a(I1564978
I1583
tp3006
a(I2491575
I1583
tp3007
a(I1178332
I1582
tp3008
a(I1189210
I1582
tp3009
a(I1669116
I1582
tp3010
a(I2222177
I1582
tp3011
a(I149575
I1581
tp3012
a(I1114349
I1581
tp3013
a(I1226073
I1581
tp3014
a(I1417705
I1581
tp3015
a(I2089742
I1581
tp3016
a(I2424839
I1581
tp3017
a(I183674
I1580
tp3018
a(I366565
I1580
tp3019
a(I662832
I1580
tp3020
a(I701615
I1580
tp3021
a(I1431311
I1580
tp3022
a(I1749238
I1580
tp3023
a(I1840900
I1580
tp3024
a(I1865846
I1580
tp3025
a(I2205734
I1580
tp3026
a(I99400
I1579
tp3027
a(I488551
I1579
tp3028
a(I708226
I1579
tp3029
a(I1464315
I1579
tp3030
a(I1584985
I1579
tp3031
a(I2463816
I1579
tp3032
a(I105802
I1578
tp3033
a(I466121
I1578
tp3034
a(I735636
I1578
tp3035
a(I1176322
I1578
tp3036
a(I1521960
I1578
tp3037
a(I1685089
I1578
tp3038
a(I2381792
I1578
tp3039
a(I560599
I1577
tp3040
a(I902413
I1577
tp3041
a(I1089692
I1577
tp3042
a(I1153777
I1577
tp3043
a(I1547747
I1577
tp3044
a(I1877958
I1577
tp3045
a(I59218
I1576
tp3046
a(I1534085
I1576
tp3047
a(I1611417
I1576
tp3048
a(I1932785
I1576
tp3049
a(I2024833
I1576
tp3050
a(I2442925
I1576
tp3051
a(I501428
I1575
tp3052
a(I505967
I1575
tp3053
a(I1207170
I1575
tp3054
a(I1303244
I1575
tp3055
a(I1348335
I1575
tp3056
a(I1685548
I1575
tp3057
a(I1919770
I1575
tp3058
a(I2314898
I1575
tp3059
a(I2398295
I1575
tp3060
a(I2508565
I1575
tp3061
a(I534933
I1574
tp3062
a(I653515
I1574
tp3063
a(I816504
I1574
tp3064
a(I884078
I1574
tp3065
a(I938931
I1574
tp3066
a(I941624
I1574
tp3067
a(I1007545
I1574
tp3068
a(I1453928
I1574
tp3069
a(I1792064
I1574
tp3070
a(I1831550
I1574
tp3071
a(I2356355
I1574
tp3072
a(I194044
I1573
tp3073
a(I234798
I1573
tp3074
a(I859826
I1573
tp3075
a(I1310748
I1573
tp3076
a(I1340377
I1573
tp3077
a(I1402224
I1573
tp3078
a(I1483852
I1573
tp3079
a(I1900424
I1573
tp3080
a(I2345122
I1573
tp3081
a(I2361743
I1573
tp3082
a(I2406094
I1573
tp3083
a(I2524708
I1573
tp3084
a(I54040
I1572
tp3085
a(I169281
I1572
tp3086
a(I256796
I1572
tp3087
a(I1083531
I1572
tp3088
a(I1370190
I1572
tp3089
a(I1720424
I1572
tp3090
a(I1774516
I1572
tp3091
a(I1996154
I1572
tp3092
a(I1415024
I1571
tp3093
a(I1716427
I1571
tp3094
a(I2237950
I1571
tp3095
a(I2555614
I1571
tp3096
a(I10897
I1570
tp3097
a(I16558
I1570
tp3098
a(I21705
I1570
tp3099
a(I158086
I1570
tp3100
a(I984085
I1570
tp3101
a(I1183174
I1570
tp3102
a(I1341214
I1570
tp3103
a(I1496080
I1570
tp3104
a(I2589029
I1570
tp3105
a(I459277
I1569
tp3106
a(I510103
I1569
tp3107
a(I832959
I1569
tp3108
a(I1278961
I1569
tp3109
a(I1889371
I1569
tp3110
a(I1997020
I1569
tp3111
a(I2353276
I1569
tp3112
a(I2375033
I1569
tp3113
a(I745235
I1568
tp3114
a(I754884
I1568
tp3115
a(I1270238
I1568
tp3116
a(I1346081
I1568
tp3117
a(I1423668
I1568
tp3118
a(I1750396
I1568
tp3119
a(I2038137
I1568
tp3120
a(I2133551
I1568
tp3121
a(I2595747
I1568
tp3122
a(I39375
I1567
tp3123
a(I426352
I1567
tp3124
a(I522710
I1567
tp3125
a(I825779
I1567
tp3126
a(I1406473
I1567
tp3127
a(I1667739
I1567
tp3128
a(I1782465
I1567
tp3129
a(I2308472
I1567
tp3130
a(I49142
I1566
tp3131
a(I465497
I1566
tp3132
a(I530000
I1566
tp3133
a(I534237
I1566
tp3134
a(I612384
I1566
tp3135
a(I992512
I1566
tp3136
a(I2559537
I1566
tp3137
a(I147653
I1565
tp3138
a(I589847
I1565
tp3139
a(I1096917
I1565
tp3140
a(I1278249
I1565
tp3141
a(I1743381
I1565
tp3142
a(I1890622
I1565
tp3143
a(I2038196
I1565
tp3144
a(I779760
I1564
tp3145
a(I1360042
I1564
tp3146
a(I1444489
I1564
tp3147
a(I1728094
I1564
tp3148
a(I1944765
I1564
tp3149
a(I2425195
I1564
tp3150
a(I2647888
I1564
tp3151
a(I1391647
I1563
tp3152
a(I2283770
I1563
tp3153
a(I2609870
I1563
tp3154
a(I695091
I1562
tp3155
a(I912340
I1562
tp3156
a(I1023101
I1562
tp3157
a(I1203347
I1562
tp3158
a(I1763064
I1562
tp3159
a(I1817718
I1562
tp3160
a(I264160
I1561
tp3161
a(I446163
I1561
tp3162
a(I1333129
I1561
tp3163
a(I1424177
I1561
tp3164
a(I1466320
I1561
tp3165
a(I1605715
I1561
tp3166
a(I1614424
I1561
tp3167
a(I2310889
I1561
tp3168
a(I2502336
I1561
tp3169
a(I447836
I1560
tp3170
a(I687379
I1560
tp3171
a(I781021
I1560
tp3172
a(I1125733
I1560
tp3173
a(I1160224
I1560
tp3174
a(I2214251
I1560
tp3175
a(I2417957
I1560
tp3176
a(I2472537
I1560
tp3177
a(I2523435
I1560
tp3178
a(I291198
I1559
tp3179
a(I496887
I1559
tp3180
a(I665996
I1559
tp3181
a(I756162
I1559
tp3182
a(I1032165
I1559
tp3183
a(I1116129
I1559
tp3184
a(I1943596
I1559
tp3185
a(I2293836
I1559
tp3186
a(I2296108
I1559
tp3187
a(I8200
I1558
tp3188
a(I301086
I1558
tp3189
a(I1024768
I1558
tp3190
a(I1916555
I1558
tp3191
a(I99844
I1557
tp3192
a(I493009
I1557
tp3193
a(I596474
I1557
tp3194
a(I1165121
I1557
tp3195
a(I1182475
I1557
tp3196
a(I1424084
I1557
tp3197
a(I1480841
I1557
tp3198
a(I1747154
I1557
tp3199
a(I1926651
I1557
tp3200
a(I169054
I1556
tp3201
a(I901684
I1556
tp3202
a(I1072072
I1556
tp3203
a(I1259696
I1556
tp3204
a(I1556617
I1556
tp3205
a(I1964514
I1556
tp3206
a(I2386443
I1556
tp3207
a(I566016
I1555
tp3208
a(I1725009
I1555
tp3209
a(I2223740
I1555
tp3210
a(I2595156
I1555
tp3211
a(I112449
I1554
tp3212
a(I167447
I1554
tp3213
a(I448894
I1554
tp3214
a(I684220
I1554
tp3215
a(I879028
I1554
tp3216
a(I917857
I1554
tp3217
a(I1412898
I1554
tp3218
a(I2384478
I1554
tp3219
a(I2595888
I1554
tp3220
a(I111693
I1553
tp3221
a(I249029
I1553
tp3222
a(I526361
I1553
tp3223
a(I537732
I1553
tp3224
a(I1332107
I1553
tp3225
a(I1567240
I1553
tp3226
a(I1658172
I1553
tp3227
a(I1693814
I1553
tp3228
a(I2048985
I1553
tp3229
a(I524619
I1552
tp3230
a(I568832
I1552
tp3231
a(I982331
I1552
tp3232
a(I1430398
I1552
tp3233
a(I1964597
I1552
tp3234
a(I2011258
I1552
tp3235
a(I2111120
I1552
tp3236
a(I2171089
I1552
tp3237
a(I642036
I1551
tp3238
a(I1233831
I1551
tp3239
a(I1549483
I1551
tp3240
a(I2091461
I1551
tp3241
a(I2610157
I1551
tp3242
a(I156622
I1550
tp3243
a(I476743
I1550
tp3244
a(I903296
I1550
tp3245
a(I1061353
I1550
tp3246
a(I1275794
I1550
tp3247
a(I1744594
I1550
tp3248
a(I1877590
I1550
tp3249
a(I2341871
I1550
tp3250
a(I2501912
I1550
tp3251
a(I2511730
I1550
tp3252
a(I69801
I1549
tp3253
a(I599529
I1549
tp3254
a(I798524
I1549
tp3255
a(I1397022
I1549
tp3256
a(I1738198
I1549
tp3257
a(I1794738
I1549
tp3258
a(I1832023
I1549
tp3259
a(I2640203
I1549
tp3260
a(I189814
I1548
tp3261
a(I412604
I1548
tp3262
a(I516192
I1548
tp3263
a(I576751
I1548
tp3264
a(I1000192
I1548
tp3265
a(I1722514
I1548
tp3266
a(I154591
I1547
tp3267
a(I257710
I1547
tp3268
a(I369912
I1547
tp3269
a(I498716
I1547
tp3270
a(I762835
I1547
tp3271
a(I1387521
I1547
tp3272
a(I1435335
I1547
tp3273
a(I1654627
I1547
tp3274
a(I1814098
I1547
tp3275
a(I1900445
I1547
tp3276
a(I2222089
I1547
tp3277
a(I2444202
I1547
tp3278
a(I764583
I1546
tp3279
a(I905074
I1546
tp3280
a(I1383426
I1546
tp3281
a(I1664712
I1546
tp3282
a(I2025577
I1546
tp3283
a(I2103314
I1546
tp3284
a(I452873
I1545
tp3285
a(I1981733
I1545
tp3286
a(I173086
I1544
tp3287
a(I369036
I1544
tp3288
a(I951798
I1544
tp3289
a(I1197388
I1544
tp3290
a(I1591103
I1544
tp3291
a(I1663216
I1544
tp3292
a(I1669517
I1544
tp3293
a(I1865100
I1544
tp3294
a(I1961161
I1544
tp3295
a(I2228763
I1544
tp3296
a(I2535238
I1544
tp3297
a(I2577467
I1544
tp3298
a(I133993
I1543
tp3299
a(I1026926
I1543
tp3300
a(I1452454
I1543
tp3301
a(I1512836
I1543
tp3302
a(I2091892
I1543
tp3303
a(I2253953
I1543
tp3304
a(I2461508
I1543
tp3305
a(I5530
I1542
tp3306
a(I198655
I1542
tp3307
a(I430648
I1542
tp3308
a(I679947
I1542
tp3309
a(I711569
I1542
tp3310
a(I935459
I1542
tp3311
a(I1128816
I1542
tp3312
a(I1246893
I1542
tp3313
a(I277916
I1541
tp3314
a(I416214
I1541
tp3315
a(I511428
I1541
tp3316
a(I828654
I1541
tp3317
a(I857132
I1541
tp3318
a(I943256
I1541
tp3319
a(I1097970
I1541
tp3320
a(I1181111
I1541
tp3321
a(I1620733
I1541
tp3322
a(I1674931
I1541
tp3323
a(I1788009
I1541
tp3324
a(I2056875
I1541
tp3325
a(I2522946
I1541
tp3326
a(I2646634
I1541
tp3327
a(I5652
I1540
tp3328
a(I37188
I1540
tp3329
a(I706897
I1540
tp3330
a(I998185
I1540
tp3331
a(I1583424
I1540
tp3332
a(I1752856
I1540
tp3333
a(I2176780
I1540
tp3334
a(I2640999
I1540
tp3335
a(I109112
I1539
tp3336
a(I191869
I1539
tp3337
a(I271355
I1539
tp3338
a(I1281478
I1539
tp3339
a(I1893120
I1539
tp3340
a(I1972929
I1539
tp3341
a(I2267322
I1539
tp3342
a(I2523912
I1539
tp3343
a(I2538608
I1539
tp3344
a(I88188
I1538
tp3345
a(I380236
I1538
tp3346
a(I644453
I1538
tp3347
a(I803330
I1538
tp3348
a(I916101
I1538
tp3349
a(I970756
I1538
tp3350
a(I1151461
I1538
tp3351
a(I1290993
I1538
tp3352
a(I1418477
I1538
tp3353
a(I1552874
I1538
tp3354
a(I1731658
I1538
tp3355
a(I1755092
I1538
tp3356
a(I2377061
I1538
tp3357
a(I6206
I1537
tp3358
a(I1184071
I1537
tp3359
a(I1243711
I1537
tp3360
a(I1513550
I1537
tp3361
a(I1671330
I1537
tp3362
a(I1807166
I1537
tp3363
a(I1808930
I1537
tp3364
a(I2286785
I1537
tp3365
a(I2420384
I1537
tp3366
a(I2445689
I1537
tp3367
a(I311027
I1536
tp3368
a(I389391
I1536
tp3369
a(I471177
I1536
tp3370
a(I1179646
I1536
tp3371
a(I1203892
I1536
tp3372
a(I1275790
I1536
tp3373
a(I2252217
I1536
tp3374
a(I2295235
I1536
tp3375
a(I2462919
I1536
tp3376
a(I625957
I1535
tp3377
a(I743598
I1535
tp3378
a(I781131
I1535
tp3379
a(I995154
I1535
tp3380
a(I1709921
I1535
tp3381
a(I2026560
I1535
tp3382
a(I2332058
I1535
tp3383
a(I2426964
I1535
tp3384
a(I66885
I1534
tp3385
a(I341814
I1534
tp3386
a(I799542
I1534
tp3387
a(I1078333
I1534
tp3388
a(I1617448
I1534
tp3389
a(I1858243
I1534
tp3390
a(I2485865
I1534
tp3391
a(I406365
I1533
tp3392
a(I909432
I1533
tp3393
a(I1192830
I1533
tp3394
a(I1247452
I1533
tp3395
a(I2358990
I1533
tp3396
a(I395747
I1532
tp3397
a(I433651
I1532
tp3398
a(I1135948
I1532
tp3399
a(I2100684
I1532
tp3400
a(I2361556
I1532
tp3401
a(I2459251
I1532
tp3402
a(I2502462
I1532
tp3403
a(I2563498
I1532
tp3404
a(I585968
I1531
tp3405
a(I1119094
I1531
tp3406
a(I1750386
I1531
tp3407
a(I1755852
I1531
tp3408
a(I2249634
I1531
tp3409
a(I2474624
I1531
tp3410
a(I264856
I1530
tp3411
a(I297901
I1530
tp3412
a(I1325977
I1530
tp3413
a(I2023416
I1530
tp3414
a(I2059141
I1530
tp3415
a(I2263991
I1530
tp3416
a(I56854
I1529
tp3417
a(I203369
I1529
tp3418
a(I776187
I1529
tp3419
a(I920065
I1529
tp3420
a(I1172177
I1529
tp3421
a(I1436357
I1529
tp3422
a(I1716910
I1529
tp3423
a(I1877868
I1529
tp3424
a(I47312
I1528
tp3425
a(I392346
I1528
tp3426
a(I570929
I1528
tp3427
a(I1200479
I1528
tp3428
a(I1203445
I1528
tp3429
a(I1762633
I1528
tp3430
a(I2006360
I1528
tp3431
a(I2209153
I1528
tp3432
a(I145941
I1527
tp3433
a(I254789
I1527
tp3434
a(I311875
I1527
tp3435
a(I552107
I1527
tp3436
a(I1442089
I1527
tp3437
a(I1492086
I1527
tp3438
a(I2352972
I1527
tp3439
a(I2441692
I1527
tp3440
a(I78885
I1526
tp3441
a(I752867
I1526
tp3442
a(I966426
I1526
tp3443
a(I1008085
I1526
tp3444
a(I1040475
I1526
tp3445
a(I1288554
I1526
tp3446
a(I1351373
I1526
tp3447
a(I1649964
I1526
tp3448
a(I1730699
I1526
tp3449
a(I1771516
I1526
tp3450
a(I2012675
I1526
tp3451
a(I2341581
I1526
tp3452
a(I86246
I1525
tp3453
a(I144577
I1525
tp3454
a(I286106
I1525
tp3455
a(I382234
I1525
tp3456
a(I408284
I1525
tp3457
a(I428831
I1525
tp3458
a(I508584
I1525
tp3459
a(I546802
I1525
tp3460
a(I1250006
I1525
tp3461
a(I1598488
I1525
tp3462
a(I1617675
I1525
tp3463
a(I1730369
I1525
tp3464
a(I1852784
I1525
tp3465
a(I1939988
I1525
tp3466
a(I2387734
I1525
tp3467
a(I2581672
I1525
tp3468
a(I2636378
I1525
tp3469
a(I297100
I1524
tp3470
a(I300074
I1524
tp3471
a(I336847
I1524
tp3472
a(I378857
I1524
tp3473
a(I385781
I1524
tp3474
a(I570909
I1524
tp3475
a(I1121663
I1524
tp3476
a(I1236929
I1524
tp3477
a(I1721623
I1524
tp3478
a(I1936617
I1524
tp3479
a(I2247785
I1524
tp3480
a(I2264286
I1524
tp3481
a(I2358148
I1524
tp3482
a(I2380603
I1524
tp3483
a(I520286
I1523
tp3484
a(I614465
I1523
tp3485
a(I653906
I1523
tp3486
a(I726339
I1523
tp3487
a(I1389360
I1523
tp3488
a(I1725515
I1523
tp3489
a(I1751371
I1523
tp3490
a(I1809161
I1523
tp3491
a(I2087711
I1523
tp3492
a(I519699
I1522
tp3493
a(I816435
I1522
tp3494
a(I1317871
I1522
tp3495
a(I1599231
I1522
tp3496
a(I2218826
I1522
tp3497
a(I2451907
I1522
tp3498
a(I2472066
I1522
tp3499
a(I200734
I1521
tp3500
a(I330424
I1521
tp3501
a(I750641
I1521
tp3502
a(I773251
I1521
tp3503
a(I828045
I1521
tp3504
a(I1054783
I1521
tp3505
a(I2311863
I1521
tp3506
a(I17691
I1520
tp3507
a(I591288
I1520
tp3508
a(I753480
I1520
tp3509
a(I1041084
I1520
tp3510
a(I1154874
I1520
tp3511
a(I1156054
I1520
tp3512
a(I1460897
I1520
tp3513
a(I1755138
I1520
tp3514
a(I2057529
I1520
tp3515
a(I2149357
I1520
tp3516
a(I2264638
I1520
tp3517
a(I617390
I1519
tp3518
a(I735560
I1519
tp3519
a(I931316
I1519
tp3520
a(I1020745
I1519
tp3521
a(I1139937
I1519
tp3522
a(I1170093
I1519
tp3523
a(I1187457
I1519
tp3524
a(I1240130
I1519
tp3525
a(I1321396
I1519
tp3526
a(I1719554
I1519
tp3527
a(I1872933
I1519
tp3528
a(I2333763
I1519
tp3529
a(I2445266
I1519
tp3530
a(I164845
I1518
tp3531
a(I806188
I1518
tp3532
a(I868881
I1518
tp3533
a(I1033629
I1518
tp3534
a(I1105158
I1518
tp3535
a(I1129687
I1518
tp3536
a(I2240770
I1518
tp3537
a(I2260761
I1518
tp3538
a(I2498427
I1518
tp3539
a(I2636012
I1518
tp3540
a(I87360
I1517
tp3541
a(I464571
I1517
tp3542
a(I948447
I1517
tp3543
a(I1432044
I1517
tp3544
a(I1774409
I1517
tp3545
a(I1970583
I1517
tp3546
a(I2634348
I1517
tp3547
a(I217619
I1516
tp3548
a(I424620
I1516
tp3549
a(I446160
I1516
tp3550
a(I509213
I1516
tp3551
a(I873478
I1516
tp3552
a(I1571299
I1516
tp3553
a(I1702270
I1516
tp3554
a(I1776654
I1516
tp3555
a(I1913241
I1516
tp3556
a(I45392
I1515
tp3557
a(I166980
I1515
tp3558
a(I282953
I1515
tp3559
a(I1258349
I1515
tp3560
a(I1439015
I1515
tp3561
a(I1487011
I1515
tp3562
a(I7576
I1514
tp3563
a(I33612
I1514
tp3564
a(I565075
I1514
tp3565
a(I577616
I1514
tp3566
a(I1145387
I1514
tp3567
a(I1809784
I1514
tp3568
a(I1880844
I1514
tp3569
a(I2004175
I1514
tp3570
a(I2392770
I1514
tp3571
a(I163893
I1513
tp3572
a(I874732
I1513
tp3573
a(I944944
I1513
tp3574
a(I1823920
I1513
tp3575
a(I2565719
I1513
tp3576
a(I200177
I1512
tp3577
a(I303087
I1512
tp3578
a(I666500
I1512
tp3579
a(I867275
I1512
tp3580
a(I1464011
I1512
tp3581
a(I1630194
I1512
tp3582
a(I1675105
I1512
tp3583
a(I1928290
I1512
tp3584
a(I2029744
I1512
tp3585
a(I2119555
I1512
tp3586
a(I2241806
I1512
tp3587
a(I2509695
I1512
tp3588
a(I2523231
I1512
tp3589
a(I256057
I1511
tp3590
a(I333843
I1511
tp3591
a(I489454
I1511
tp3592
a(I516343
I1511
tp3593
a(I896927
I1511
tp3594
a(I962164
I1511
tp3595
a(I2210272
I1511
tp3596
a(I2295922
I1511
tp3597
a(I2413320
I1511
tp3598
a(I2550095
I1511
tp3599
a(I2587909
I1511
tp3600
a(I84213
I1510
tp3601
a(I469021
I1510
tp3602
a(I506161
I1510
tp3603
a(I521153
I1510
tp3604
a(I1194759
I1510
tp3605
a(I1394516
I1510
tp3606
a(I1626727
I1510
tp3607
a(I2010849
I1510
tp3608
a(I2510054
I1510
tp3609
a(I606144
I1509
tp3610
a(I653059
I1509
tp3611
a(I917008
I1509
tp3612
a(I1204323
I1509
tp3613
a(I1327727
I1509
tp3614
a(I1432474
I1509
tp3615
a(I1517471
I1509
tp3616
a(I1772954
I1509
tp3617
a(I1830763
I1509
tp3618
a(I2295501
I1509
tp3619
a(I2419242
I1509
tp3620
a(I2557296
I1509
tp3621
a(I252054
I1508
tp3622
a(I332471
I1508
tp3623
a(I557502
I1508
tp3624
a(I776905
I1508
tp3625
a(I795473
I1508
tp3626
a(I1130826
I1508
tp3627
a(I1291667
I1508
tp3628
a(I1848593
I1508
tp3629
a(I2438141
I1508
tp3630
a(I15737
I1507
tp3631
a(I42072
I1507
tp3632
a(I287901
I1507
tp3633
a(I553202
I1507
tp3634
a(I1108304
I1507
tp3635
a(I1212887
I1507
tp3636
a(I1463939
I1507
tp3637
a(I1516909
I1507
tp3638
a(I1576028
I1507
tp3639
a(I2280025
I1507
tp3640
a(I361070
I1506
tp3641
a(I1059927
I1506
tp3642
a(I1081910
I1506
tp3643
a(I1111556
I1506
tp3644
a(I1178938
I1506
tp3645
a(I1195863
I1506
tp3646
a(I1551926
I1506
tp3647
a(I1580673
I1506
tp3648
a(I2340228
I1506
tp3649
a(I169311
I1505
tp3650
a(I253275
I1505
tp3651
a(I438674
I1505
tp3652
a(I711263
I1505
tp3653
a(I1037924
I1505
tp3654
a(I1199475
I1505
tp3655
a(I1326195
I1505
tp3656
a(I1675619
I1505
tp3657
a(I1929487
I1505
tp3658
a(I39490
I1504
tp3659
a(I485334
I1504
tp3660
a(I1372635
I1504
tp3661
a(I2535586
I1504
tp3662
a(I378732
I1503
tp3663
a(I769235
I1503
tp3664
a(I1288627
I1503
tp3665
a(I2549156
I1503
tp3666
a(I181364
I1502
tp3667
a(I387106
I1502
tp3668
a(I812796
I1502
tp3669
a(I1059101
I1502
tp3670
a(I1570161
I1502
tp3671
a(I2105883
I1502
tp3672
a(I109079
I1501
tp3673
a(I461070
I1501
tp3674
a(I668855
I1501
tp3675
a(I876510
I1501
tp3676
a(I1136740
I1501
tp3677
a(I1666140
I1501
tp3678
a(I2162424
I1501
tp3679
a(I931384
I1500
tp3680
a(I936928
I1500
tp3681
a(I1256816
I1500
tp3682
a(I1791124
I1500
tp3683
a(I2160787
I1500
tp3684
a(I2419975
I1500
tp3685
a(I2473261
I1500
tp3686
a(I2502112
I1500
tp3687
a(I229439
I1499
tp3688
a(I656977
I1499
tp3689
a(I1370506
I1499
tp3690
a(I1943605
I1499
tp3691
a(I2186820
I1499
tp3692
a(I2283366
I1499
tp3693
a(I2332377
I1499
tp3694
a(I2471527
I1499
tp3695
a(I2490049
I1499
tp3696
a(I2521994
I1499
tp3697
a(I2529630
I1499
tp3698
a(I2644945
I1499
tp3699
a(I80548
I1498
tp3700
a(I131752
I1498
tp3701
a(I285031
I1498
tp3702
a(I861911
I1498
tp3703
a(I941279
I1498
tp3704
a(I1010609
I1498
tp3705
a(I2419406
I1498
tp3706
a(I2433978
I1498
tp3707
a(I126216
I1497
tp3708
a(I509496
I1497
tp3709
a(I634569
I1497
tp3710
a(I963705
I1497
tp3711
a(I1013856
I1497
tp3712
a(I1473641
I1497
tp3713
a(I1972112
I1497
tp3714
a(I2072858
I1497
tp3715
a(I2138757
I1497
tp3716
a(I608114
I1496
tp3717
a(I772825
I1496
tp3718
a(I831151
I1496
tp3719
a(I2396089
I1496
tp3720
a(I2568756
I1496
tp3721
a(I90362
I1495
tp3722
a(I221091
I1495
tp3723
a(I397077
I1495
tp3724
a(I444229
I1495
tp3725
a(I505375
I1495
tp3726
a(I1198556
I1495
tp3727
a(I1363333
I1495
tp3728
a(I1579906
I1495
tp3729
a(I1690559
I1495
tp3730
a(I2528590
I1495
tp3731
a(I67900
I1494
tp3732
a(I322178
I1494
tp3733
a(I324080
I1494
tp3734
a(I389017
I1494
tp3735
a(I391708
I1494
tp3736
a(I709542
I1494
tp3737
a(I890669
I1494
tp3738
a(I918897
I1494
tp3739
a(I1460800
I1494
tp3740
a(I1565851
I1494
tp3741
a(I1995214
I1494
tp3742
a(I2125035
I1494
tp3743
a(I57347
I1493
tp3744
a(I530763
I1493
tp3745
a(I682688
I1493
tp3746
a(I1065598
I1493
tp3747
a(I1829617
I1493
tp3748
a(I2003550
I1493
tp3749
a(I2159290
I1493
tp3750
a(I2375687
I1493
tp3751
a(I2407994
I1493
tp3752
a(I2634182
I1493
tp3753
a(I354091
I1492
tp3754
a(I780253
I1492
tp3755
a(I1231842
I1492
tp3756
a(I1269877
I1492
tp3757
a(I1534723
I1492
tp3758
a(I2309047
I1492
tp3759
a(I26124
I1491
tp3760
a(I165288
I1491
tp3761
a(I189443
I1491
tp3762
a(I379499
I1491
tp3763
a(I779144
I1491
tp3764
a(I1755534
I1491
tp3765
a(I2028737
I1491
tp3766
a(I2398656
I1491
tp3767
a(I2592095
I1491
tp3768
a(I41422
I1490
tp3769
a(I439688
I1490
tp3770
a(I838868
I1490
tp3771
a(I1315654
I1490
tp3772
a(I1668072
I1490
tp3773
a(I2204563
I1490
tp3774
a(I2305978
I1490
tp3775
a(I2636654
I1490
tp3776
a(I121324
I1489
tp3777
a(I779635
I1489
tp3778
a(I1018901
I1489
tp3779
a(I1614939
I1489
tp3780
a(I2032944
I1489
tp3781
a(I2411531
I1489
tp3782
a(I2477588
I1489
tp3783
a(I230966
I1488
tp3784
a(I342330
I1488
tp3785
a(I424513
I1488
tp3786
a(I990639
I1488
tp3787
a(I1114801
I1488
tp3788
a(I1652623
I1488
tp3789
a(I1669465
I1488
tp3790
a(I2297386
I1488
tp3791
a(I2318311
I1488
tp3792
a(I2324287
I1488
tp3793
a(I2376801
I1488
tp3794
a(I2526309
I1488
tp3795
a(I280978
I1487
tp3796
a(I378348
I1487
tp3797
a(I385287
I1487
tp3798
a(I858298
I1487
tp3799
a(I1247506
I1487
tp3800
a(I1820593
I1487
tp3801
a(I1927110
I1487
tp3802
a(I1995942
I1487
tp3803
a(I2217027
I1487
tp3804
a(I271128
I1486
tp3805
a(I422485
I1486
tp3806
a(I705603
I1486
tp3807
a(I728123
I1486
tp3808
a(I1018465
I1486
tp3809
a(I1232740
I1486
tp3810
a(I1437853
I1486
tp3811
a(I1440126
I1486
tp3812
a(I2208519
I1486
tp3813
a(I2432893
I1486
tp3814
a(I2491366
I1486
tp3815
a(I64996
I1485
tp3816
a(I562156
I1485
tp3817
a(I704058
I1485
tp3818
a(I1367101
I1485
tp3819
a(I1395543
I1485
tp3820
a(I1712930
I1485
tp3821
a(I2055178
I1485
tp3822
a(I2151359
I1485
tp3823
a(I2162676
I1485
tp3824
a(I14642
I1484
tp3825
a(I401315
I1484
tp3826
a(I438189
I1484
tp3827
a(I502758
I1484
tp3828
a(I559753
I1484
tp3829
a(I1171469
I1484
tp3830
a(I1497891
I1484
tp3831
a(I1683198
I1484
tp3832
a(I1706866
I1484
tp3833
a(I2001296
I1484
tp3834
a(I2338019
I1484
tp3835
a(I2541939
I1484
tp3836
a(I2550711
I1484
tp3837
a(I2573624
I1484
tp3838
a(I504051
I1483
tp3839
a(I563585
I1483
tp3840
a(I693720
I1483
tp3841
a(I751829
I1483
tp3842
a(I752619
I1483
tp3843
a(I924765
I1483
tp3844
a(I1383642
I1483
tp3845
a(I1961980
I1483
tp3846
a(I2195606
I1483
tp3847
a(I263031
I1482
tp3848
a(I330526
I1482
tp3849
a(I785931
I1482
tp3850
a(I1452396
I1482
tp3851
a(I1553965
I1482
tp3852
a(I1648316
I1482
tp3853
a(I1954032
I1482
tp3854
a(I2411453
I1482
tp3855
a(I2412265
I1482
tp3856
a(I2455107
I1482
tp3857
a(I2585513
I1482
tp3858
a(I768176
I1481
tp3859
a(I954924
I1481
tp3860
a(I1017411
I1481
tp3861
a(I1500397
I1481
tp3862
a(I2604473
I1481
tp3863
a(I190474
I1480
tp3864
a(I218199
I1480
tp3865
a(I429876
I1480
tp3866
a(I535671
I1480
tp3867
a(I1422346
I1480
tp3868
a(I1874239
I1480
tp3869
a(I2103047
I1480
tp3870
a(I2229377
I1480
tp3871
a(I214501
I1479
tp3872
a(I504503
I1479
tp3873
a(I1068656
I1479
tp3874
a(I1365170
I1479
tp3875
a(I1456621
I1479
tp3876
a(I1574597
I1479
tp3877
a(I1724821
I1479
tp3878
a(I2299436
I1479
tp3879
a(I2503583
I1479
tp3880
a(I259497
I1478
tp3881
a(I275687
I1478
tp3882
a(I923084
I1478
tp3883
a(I1602952
I1478
tp3884
a(I2043109
I1478
tp3885
a(I2071210
I1478
tp3886
a(I2284110
I1478
tp3887
a(I2334757
I1478
tp3888
a(I2405421
I1478
tp3889
a(I115097
I1477
tp3890
a(I319647
I1477
tp3891
a(I331341
I1477
tp3892
a(I387262
I1477
tp3893
a(I537389
I1477
tp3894
a(I605082
I1477
tp3895
a(I669340
I1477
tp3896
a(I768749
I1477
tp3897
a(I935060
I1477
tp3898
a(I961513
I1477
tp3899
a(I1145939
I1477
tp3900
a(I1497845
I1477
tp3901
a(I1774623
I1477
tp3902
a(I2373453
I1477
tp3903
a(I2568908
I1477
tp3904
a(I690313
I1476
tp3905
a(I1701632
I1476
tp3906
a(I1903175
I1476
tp3907
a(I2117885
I1476
tp3908
a(I2613898
I1476
tp3909
a(I270890
I1475
tp3910
a(I632347
I1475
tp3911
a(I795665
I1475
tp3912
a(I2295321
I1475
tp3913
a(I278882
I1474
tp3914
a(I340492
I1474
tp3915
a(I441324
I1474
tp3916
a(I795380
I1474
tp3917
a(I1358681
I1474
tp3918
a(I1515113
I1474
tp3919
a(I1669420
I1474
tp3920
a(I2061499
I1474
tp3921
a(I2072811
I1474
tp3922
a(I2073629
I1474
tp3923
a(I2606685
I1474
tp3924
a(I679429
I1473
tp3925
a(I2134425
I1473
tp3926
a(I2196083
I1473
tp3927
a(I2239360
I1473
tp3928
a(I2356682
I1473
tp3929
a(I2520933
I1473
tp3930
a(I2574126
I1473
tp3931
a(I245369
I1472
tp3932
a(I466763
I1472
tp3933
a(I478932
I1472
tp3934
a(I521315
I1472
tp3935
a(I721590
I1472
tp3936
a(I1117062
I1472
tp3937
a(I1222252
I1472
tp3938
a(I1368650
I1472
tp3939
a(I1810074
I1472
tp3940
a(I1887749
I1472
tp3941
a(I2228502
I1472
tp3942
a(I2322383
I1472
tp3943
a(I20392
I1471
tp3944
a(I97608
I1471
tp3945
a(I423167
I1471
tp3946
a(I1190685
I1471
tp3947
a(I1371031
I1471
tp3948
a(I1600960
I1471
tp3949
a(I1789747
I1471
tp3950
a(I2140471
I1471
tp3951
a(I2206659
I1471
tp3952
a(I2450534
I1471
tp3953
a(I470781
I1470
tp3954
a(I960983
I1470
tp3955
a(I1248029
I1470
tp3956
a(I1624047
I1470
tp3957
a(I19938
I1469
tp3958
a(I165720
I1469
tp3959
a(I234275
I1469
tp3960
a(I705714
I1469
tp3961
a(I720436
I1469
tp3962
a(I867800
I1469
tp3963
a(I1114141
I1469
tp3964
a(I1545940
I1469
tp3965
a(I1622462
I1469
tp3966
a(I2276790
I1469
tp3967
a(I2394802
I1469
tp3968
a(I2551686
I1469
tp3969
a(I2593317
I1469
tp3970
a(I182134
I1468
tp3971
a(I606105
I1468
tp3972
a(I632448
I1468
tp3973
a(I662412
I1468
tp3974
a(I996461
I1468
tp3975
a(I2596310
I1468
tp3976
a(I197025
I1467
tp3977
a(I458190
I1467
tp3978
a(I770268
I1467
tp3979
a(I1085738
I1467
tp3980
a(I1109861
I1467
tp3981
a(I1124163
I1467
tp3982
a(I1629301
I1467
tp3983
a(I1847522
I1467
tp3984
a(I2052789
I1467
tp3985
a(I2156368
I1467
tp3986
a(I2179904
I1467
tp3987
a(I2568738
I1467
tp3988
a(I519761
I1466
tp3989
a(I896114
I1466
tp3990
a(I1176779
I1466
tp3991
a(I1429794
I1466
tp3992
a(I1578281
I1466
tp3993
a(I1837202
I1466
tp3994
a(I2065164
I1466
tp3995
a(I2107249
I1466
tp3996
a(I2180413
I1466
tp3997
a(I2248543
I1466
tp3998
a(I2280493
I1466
tp3999
a(I116761
I1465
tp4000
a(I122057
I1465
tp4001
a(I959443
I1465
tp4002
a(I1144950
I1465
tp4003
a(I1454142
I1465
tp4004
a(I2260008
I1465
tp4005
a(I2442131
I1465
tp4006
a(I2520364
I1465
tp4007
a(I164532
I1464
tp4008
a(I201254
I1464
tp4009
a(I533352
I1464
tp4010
a(I541295
I1464
tp4011
a(I706198
I1464
tp4012
a(I1010489
I1464
tp4013
a(I1423566
I1464
tp4014
a(I1597178
I1464
tp4015
a(I1990901
I1464
tp4016
a(I2026477
I1464
tp4017
a(I2262890
I1464
tp4018
a(I2613921
I1464
tp4019
a(I427967
I1463
tp4020
a(I926054
I1463
tp4021
a(I1069489
I1463
tp4022
a(I1223664
I1463
tp4023
a(I1300029
I1463
tp4024
a(I1319449
I1463
tp4025
a(I1808201
I1463
tp4026
a(I2432917
I1463
tp4027
a(I2465337
I1463
tp4028
a(I280120
I1462
tp4029
a(I426362
I1462
tp4030
a(I480033
I1462
tp4031
a(I549094
I1462
tp4032
a(I581199
I1462
tp4033
a(I760837
I1462
tp4034
a(I1315370
I1462
tp4035
a(I1675280
I1462
tp4036
a(I1747640
I1462
tp4037
a(I2112141
I1462
tp4038
a(I2269029
I1462
tp4039
a(I74533
I1461
tp4040
a(I252119
I1461
tp4041
a(I566628
I1461
tp4042
a(I1554241
I1461
tp4043
a(I1663295
I1461
tp4044
a(I1995910
I1461
tp4045
a(I2120970
I1461
tp4046
a(I2325040
I1461
tp4047
a(I2559157
I1461
tp4048
a(I345588
I1460
tp4049
a(I582829
I1460
tp4050
a(I941431
I1460
tp4051
a(I1036836
I1460
tp4052
a(I1553047
I1460
tp4053
a(I1555081
I1460
tp4054
a(I1648992
I1460
tp4055
a(I2433768
I1460
tp4056
a(I389581
I1459
tp4057
a(I2379200
I1459
tp4058
a(I2426395
I1459
tp4059
a(I2515276
I1459
tp4060
a(I146587
I1458
tp4061
a(I1276983
I1458
tp4062
a(I1658953
I1458
tp4063
a(I1703544
I1458
tp4064
a(I1996893
I1458
tp4065
a(I2217988
I1458
tp4066
a(I2408145
I1458
tp4067
a(I8660
I1457
tp4068
a(I50259
I1457
tp4069
a(I105982
I1457
tp4070
a(I931005
I1457
tp4071
a(I1275703
I1457
tp4072
a(I1486688
I1457
tp4073
a(I1550207
I1457
tp4074
a(I1834394
I1457
tp4075
a(I2167041
I1457
tp4076
a(I2360721
I1457
tp4077
a(I2370740
I1457
tp4078
a(I134640
I1456
tp4079
a(I578869
I1456
tp4080
a(I844207
I1456
tp4081
a(I920724
I1456
tp4082
a(I982661
I1456
tp4083
a(I1191617
I1456
tp4084
a(I1229372
I1456
tp4085
a(I1266589
I1456
tp4086
a(I1617685
I1456
tp4087
a(I1630419
I1456
tp4088
a(I2206151
I1456
tp4089
a(I2244258
I1456
tp4090
a(I2385925
I1456
tp4091
a(I486152
I1455
tp4092
a(I712653
I1455
tp4093
a(I1115828
I1455
tp4094
a(I1416455
I1455
tp4095
a(I1475543
I1455
tp4096
a(I1891149
I1455
tp4097
a(I1916244
I1455
tp4098
a(I2207914
I1455
tp4099
a(I2607433
I1455
tp4100
a(I402377
I1454
tp4101
a(I550365
I1454
tp4102
a(I1142880
I1454
tp4103
a(I1149582
I1454
tp4104
a(I1219733
I1454
tp4105
a(I1348610
I1454
tp4106
a(I1442105
I1454
tp4107
a(I2110341
I1454
tp4108
a(I2238663
I1454
tp4109
a(I2492154
I1454
tp4110
a(I973051
I1453
tp4111
a(I1590697
I1453
tp4112
a(I1682851
I1453
tp4113
a(I1965893
I1453
tp4114
a(I2098006
I1453
tp4115
a(I2301393
I1453
tp4116
a(I2358855
I1453
tp4117
a(I716649
I1452
tp4118
a(I732682
I1452
tp4119
a(I814408
I1452
tp4120
a(I1102418
I1452
tp4121
a(I1394988
I1452
tp4122
a(I1644520
I1452
tp4123
a(I2366524
I1452
tp4124
a(I2374631
I1452
tp4125
a(I308307
I1451
tp4126
a(I433641
I1451
tp4127
a(I439729
I1451
tp4128
a(I581893
I1451
tp4129
a(I841955
I1451
tp4130
a(I1071266
I1451
tp4131
a(I1474480
I1451
tp4132
a(I1581139
I1451
tp4133
a(I1928445
I1451
tp4134
a(I2070937
I1451
tp4135
a(I2186505
I1451
tp4136
a(I2237907
I1451
tp4137
a(I2525160
I1451
tp4138
a(I2573701
I1451
tp4139
a(I236815
I1450
tp4140
a(I716761
I1450
tp4141
a(I827526
I1450
tp4142
a(I948457
I1450
tp4143
a(I1193872
I1450
tp4144
a(I1408249
I1450
tp4145
a(I1551980
I1450
tp4146
a(I1698802
I1450
tp4147
a(I1717675
I1450
tp4148
a(I1896561
I1450
tp4149
a(I2316963
I1450
tp4150
a(I2409280
I1450
tp4151
a(I891923
I1449
tp4152
a(I912999
I1449
tp4153
a(I1216387
I1449
tp4154
a(I1645486
I1449
tp4155
a(I1717184
I1449
tp4156
a(I1742122
I1449
tp4157
a(I2008854
I1449
tp4158
a(I2143870
I1449
tp4159
a(I2163939
I1449
tp4160
a(I2195910
I1449
tp4161
a(I15420
I1448
tp4162
a(I388643
I1448
tp4163
a(I851702
I1448
tp4164
a(I1045053
I1448
tp4165
a(I1438031
I1448
tp4166
a(I1880925
I1448
tp4167
a(I2115962
I1448
tp4168
a(I2243515
I1448
tp4169
a(I2287836
I1448
tp4170
a(I2621229
I1448
tp4171
a(I248976
I1447
tp4172
a(I442813
I1447
tp4173
a(I466151
I1447
tp4174
a(I851463
I1447
tp4175
a(I1510380
I1447
tp4176
a(I1766397
I1447
tp4177
a(I1769330
I1447
tp4178
a(I2597335
I1447
tp4179
a(I548581
I1446
tp4180
a(I853893
I1446
tp4181
a(I934835
I1446
tp4182
a(I1064540
I1446
tp4183
a(I1296163
I1446
tp4184
a(I1427330
I1446
tp4185
a(I1716677
I1446
tp4186
a(I2001326
I1446
tp4187
a(I2012052
I1446
tp4188
a(I2201507
I1446
tp4189
a(I2440182
I1446
tp4190
a(I2481491
I1446
tp4191
a(I2562859
I1446
tp4192
a(I398661
I1445
tp4193
a(I538214
I1445
tp4194
a(I587610
I1445
tp4195
a(I1187757
I1445
tp4196
a(I1498236
I1445
tp4197
a(I1914553
I1445
tp4198
a(I2364377
I1445
tp4199
a(I2376375
I1445
tp4200
a(I408636
I1444
tp4201
a(I504624
I1444
tp4202
a(I755163
I1444
tp4203
a(I757456
I1444
tp4204
a(I1133199
I1444
tp4205
a(I1934293
I1444
tp4206
a(I1937532
I1444
tp4207
a(I2100834
I1444
tp4208
a(I2442597
I1444
tp4209
a(I2545618
I1444
tp4210
a(I277223
I1443
tp4211
a(I898713
I1443
tp4212
a(I914728
I1443
tp4213
a(I960137
I1443
tp4214
a(I1484284
I1443
tp4215
a(I1531344
I1443
tp4216
a(I1908523
I1443
tp4217
a(I2046124
I1443
tp4218
a(I215948
I1442
tp4219
a(I477387
I1442
tp4220
a(I1093403
I1442
tp4221
a(I1243789
I1442
tp4222
a(I1273765
I1442
tp4223
a(I1273979
I1442
tp4224
a(I1483639
I1442
tp4225
a(I2040676
I1442
tp4226
a(I2330786
I1442
tp4227
a(I2345215
I1442
tp4228
a(I2389101
I1442
tp4229
a(I2507459
I1442
tp4230
a(I473233
I1441
tp4231
a(I910059
I1441
tp4232
a(I1111943
I1441
tp4233
a(I1150035
I1441
tp4234
a(I1447641
I1441
tp4235
a(I1769638
I1441
tp4236
a(I1935323
I1441
tp4237
a(I1992636
I1441
tp4238
a(I650227
I1440
tp4239
a(I728171
I1440
tp4240
a(I1090765
I1440
tp4241
a(I1540779
I1440
tp4242
a(I1579371
I1440
tp4243
a(I1580032
I1440
tp4244
a(I1707646
I1440
tp4245
a(I2186235
I1440
tp4246
a(I2610420
I1440
tp4247
a(I783585
I1439
tp4248
a(I1067376
I1439
tp4249
a(I1267586
I1439
tp4250
a(I1771108
I1439
tp4251
a(I1843168
I1439
tp4252
a(I1980663
I1439
tp4253
a(I2002123
I1439
tp4254
a(I2122285
I1439
tp4255
a(I2269100
I1439
tp4256
a(I2438440
I1439
tp4257
a(I110260
I1438
tp4258
a(I496631
I1438
tp4259
a(I1026860
I1438
tp4260
a(I1262403
I1438
tp4261
a(I1677588
I1438
tp4262
a(I2162539
I1438
tp4263
a(I2438621
I1438
tp4264
a(I2556552
I1438
tp4265
a(I326121
I1437
tp4266
a(I694620
I1437
tp4267
a(I882322
I1437
tp4268
a(I1190964
I1437
tp4269
a(I1240865
I1437
tp4270
a(I1293986
I1437
tp4271
a(I1312530
I1437
tp4272
a(I1945567
I1437
tp4273
a(I1967891
I1437
tp4274
a(I2173152
I1437
tp4275
a(I2316429
I1437
tp4276
a(I2482738
I1437
tp4277
a(I2515047
I1437
tp4278
a(I202114
I1436
tp4279
a(I445423
I1436
tp4280
a(I451011
I1436
tp4281
a(I646765
I1436
tp4282
a(I1024066
I1436
tp4283
a(I1409829
I1436
tp4284
a(I1463219
I1436
tp4285
a(I1570292
I1436
tp4286
a(I1659647
I1436
tp4287
a(I1717534
I1436
tp4288
a(I1774452
I1436
tp4289
a(I1905498
I1436
tp4290
a(I2090369
I1436
tp4291
a(I34669
I1435
tp4292
a(I673040
I1435
tp4293
a(I958956
I1435
tp4294
a(I1087551
I1435
tp4295
a(I1870555
I1435
tp4296
a(I2400911
I1435
tp4297
a(I408765
I1434
tp4298
a(I899799
I1434
tp4299
a(I1361614
I1434
tp4300
a(I1548770
I1434
tp4301
a(I1561964
I1434
tp4302
a(I1606779
I1434
tp4303
a(I1760487
I1434
tp4304
a(I1873315
I1434
tp4305
a(I2387961
I1434
tp4306
a(I301047
I1433
tp4307
a(I356103
I1433
tp4308
a(I629120
I1433
tp4309
a(I1250515
I1433
tp4310
a(I1381552
I1433
tp4311
a(I2148197
I1433
tp4312
a(I2186938
I1433
tp4313
a(I2425137
I1433
tp4314
a(I2502736
I1433
tp4315
a(I2577882
I1433
tp4316
a(I410446
I1432
tp4317
a(I550777
I1432
tp4318
a(I940264
I1432
tp4319
a(I1508638
I1432
tp4320
a(I1567322
I1432
tp4321
a(I1616135
I1432
tp4322
a(I1729518
I1432
tp4323
a(I2234845
I1432
tp4324
a(I139006
I1431
tp4325
a(I219174
I1431
tp4326
a(I336595
I1431
tp4327
a(I493587
I1431
tp4328
a(I587590
I1431
tp4329
a(I810392
I1431
tp4330
a(I900455
I1431
tp4331
a(I1072466
I1431
tp4332
a(I1080173
I1431
tp4333
a(I1110906
I1431
tp4334
a(I1122969
I1431
tp4335
a(I1233457
I1431
tp4336
a(I1457728
I1431
tp4337
a(I1692249
I1431
tp4338
a(I2030708
I1431
tp4339
a(I2315626
I1431
tp4340
a(I2542967
I1431
tp4341
a(I253434
I1430
tp4342
a(I353820
I1430
tp4343
a(I1460343
I1430
tp4344
a(I1483251
I1430
tp4345
a(I1620735
I1430
tp4346
a(I2207951
I1430
tp4347
a(I2588107
I1430
tp4348
a(I164647
I1429
tp4349
a(I360412
I1429
tp4350
a(I895935
I1429
tp4351
a(I1023470
I1429
tp4352
a(I1263008
I1429
tp4353
a(I1490775
I1429
tp4354
a(I2283319
I1429
tp4355
a(I2315073
I1429
tp4356
a(I2330519
I1429
tp4357
a(I328651
I1428
tp4358
a(I440852
I1428
tp4359
a(I735078
I1428
tp4360
a(I1132912
I1428
tp4361
a(I1342357
I1428
tp4362
a(I1416190
I1428
tp4363
a(I1490642
I1428
tp4364
a(I1955706
I1428
tp4365
a(I1993420
I1428
tp4366
a(I2392051
I1428
tp4367
a(I2575399
I1428
tp4368
a(I123384
I1427
tp4369
a(I520374
I1427
tp4370
a(I651142
I1427
tp4371
a(I675390
I1427
tp4372
a(I872215
I1427
tp4373
a(I1144771
I1427
tp4374
a(I1176763
I1427
tp4375
a(I1262684
I1427
tp4376
a(I1365299
I1427
tp4377
a(I2205104
I1427
tp4378
a(I2560469
I1427
tp4379
a(I150663
I1426
tp4380
a(I320939
I1426
tp4381
a(I774398
I1426
tp4382
a(I1517010
I1426
tp4383
a(I1603364
I1426
tp4384
a(I2125852
I1426
tp4385
a(I2156630
I1426
tp4386
a(I2487809
I1426
tp4387
a(I2569369
I1426
tp4388
a(I246686
I1425
tp4389
a(I663654
I1425
tp4390
a(I688057
I1425
tp4391
a(I732590
I1425
tp4392
a(I875926
I1425
tp4393
a(I1055714
I1425
tp4394
a(I1129340
I1425
tp4395
a(I1157892
I1425
tp4396
a(I1321481
I1425
tp4397
a(I1442154
I1425
tp4398
a(I1489566
I1425
tp4399
a(I1660783
I1425
tp4400
a(I2068909
I1425
tp4401
a(I2178729
I1425
tp4402
a(I2181739
I1425
tp4403
a(I2242958
I1425
tp4404
a(I2543978
I1425
tp4405
a(I116563
I1424
tp4406
a(I306564
I1424
tp4407
a(I473748
I1424
tp4408
a(I621003
I1424
tp4409
a(I637475
I1424
tp4410
a(I649017
I1424
tp4411
a(I674065
I1424
tp4412
a(I1431160
I1424
tp4413
a(I1799090
I1424
tp4414
a(I2056324
I1424
tp4415
a(I2082635
I1424
tp4416
a(I164016
I1423
tp4417
a(I234639
I1423
tp4418
a(I753195
I1423
tp4419
a(I770339
I1423
tp4420
a(I813424
I1423
tp4421
a(I949240
I1423
tp4422
a(I1076140
I1423
tp4423
a(I1250231
I1423
tp4424
a(I1320587
I1423
tp4425
a(I1351594
I1423
tp4426
a(I1940143
I1423
tp4427
a(I2179550
I1423
tp4428
a(I2315404
I1423
tp4429
a(I2321519
I1423
tp4430
a(I2380329
I1423
tp4431
a(I2396197
I1423
tp4432
a(I2434632
I1423
tp4433
a(I178588
I1422
tp4434
a(I434101
I1422
tp4435
a(I686362
I1422
tp4436
a(I837258
I1422
tp4437
a(I978881
I1422
tp4438
a(I1073729
I1422
tp4439
a(I1119705
I1422
tp4440
a(I1478291
I1422
tp4441
a(I1714874
I1422
tp4442
a(I1815614
I1422
tp4443
a(I1891779
I1422
tp4444
a(I2075584
I1422
tp4445
a(I2085211
I1422
tp4446
a(I2227804
I1422
tp4447
a(I2386920
I1422
tp4448
a(I2595310
I1422
tp4449
a(I2637187
I1422
tp4450
a(I2643193
I1422
tp4451
a(I167227
I1421
tp4452
a(I273814
I1421
tp4453
a(I518309
I1421
tp4454
a(I789548
I1421
tp4455
a(I829075
I1421
tp4456
a(I1048939
I1421
tp4457
a(I1409759
I1421
tp4458
a(I1431808
I1421
tp4459
a(I1444057
I1421
tp4460
a(I1473666
I1421
tp4461
a(I1814991
I1421
tp4462
a(I1892097
I1421
tp4463
a(I2220847
I1421
tp4464
a(I291620
I1420
tp4465
a(I427485
I1420
tp4466
a(I531630
I1420
tp4467
a(I954111
I1420
tp4468
a(I1074677
I1420
tp4469
a(I1217751
I1420
tp4470
a(I1788180
I1420
tp4471
a(I2245579
I1420
tp4472
a(I2425260
I1420
tp4473
a(I44434
I1419
tp4474
a(I320226
I1419
tp4475
a(I458177
I1419
tp4476
a(I954973
I1419
tp4477
a(I1203991
I1419
tp4478
a(I1239467
I1419
tp4479
a(I1339784
I1419
tp4480
a(I1532220
I1419
tp4481
a(I1904865
I1419
tp4482
a(I2551764
I1419
tp4483
a(I47344
I1418
tp4484
a(I942568
I1418
tp4485
a(I1118120
I1418
tp4486
a(I1214125
I1418
tp4487
a(I1292165
I1418
tp4488
a(I1410753
I1418
tp4489
a(I1562707
I1418
tp4490
a(I2235166
I1418
tp4491
a(I2449001
I1418
tp4492
a(I104462
I1417
tp4493
a(I191666
I1417
tp4494
a(I840737
I1417
tp4495
a(I1125803
I1417
tp4496
a(I1133611
I1417
tp4497
a(I1232404
I1417
tp4498
a(I1388741
I1417
tp4499
a(I1739691
I1417
tp4500
a(I1978543
I1417
tp4501
a(I2207806
I1417
tp4502
a(I18907
I1416
tp4503
a(I137309
I1416
tp4504
a(I227076
I1416
tp4505
a(I240869
I1416
tp4506
a(I500249
I1416
tp4507
a(I622453
I1416
tp4508
a(I790183
I1416
tp4509
a(I1485835
I1416
tp4510
a(I1551591
I1416
tp4511
a(I1934347
I1416
tp4512
a(I2176056
I1416
tp4513
a(I548695
I1415
tp4514
a(I759289
I1415
tp4515
a(I878889
I1415
tp4516
a(I1427380
I1415
tp4517
a(I1450860
I1415
tp4518
a(I1469447
I1415
tp4519
a(I1993568
I1415
tp4520
a(I2349571
I1415
tp4521
a(I2474804
I1415
tp4522
a(I43729
I1414
tp4523
a(I114130
I1414
tp4524
a(I139297
I1414
tp4525
a(I533713
I1414
tp4526
a(I669659
I1414
tp4527
a(I814740
I1414
tp4528
a(I1466453
I1414
tp4529
a(I1698900
I1414
tp4530
a(I1756796
I1414
tp4531
a(I1885932
I1414
tp4532
a(I2144951
I1414
tp4533
a(I2268019
I1414
tp4534
a(I2317703
I1414
tp4535
a(I3595
I1413
tp4536
a(I36478
I1413
tp4537
a(I310187
I1413
tp4538
a(I334185
I1413
tp4539
a(I1898907
I1413
tp4540
a(I1900750
I1413
tp4541
a(I2150689
I1413
tp4542
a(I2387672
I1413
tp4543
a(I2456635
I1413
tp4544
a(I339547
I1412
tp4545
a(I480115
I1412
tp4546
a(I682560
I1412
tp4547
a(I1156244
I1412
tp4548
a(I2122850
I1412
tp4549
a(I2581488
I1412
tp4550
a(I139107
I1411
tp4551
a(I235782
I1411
tp4552
a(I499293
I1411
tp4553
a(I688217
I1411
tp4554
a(I726823
I1411
tp4555
a(I852193
I1411
tp4556
a(I1008517
I1411
tp4557
a(I1731009
I1411
tp4558
a(I2182722
I1411
tp4559
a(I2549746
I1411
tp4560
a(I121699
I1410
tp4561
a(I541796
I1410
tp4562
a(I1407936
I1410
tp4563
a(I1567783
I1410
tp4564
a(I1601857
I1410
tp4565
a(I1644680
I1410
tp4566
a(I1770828
I1410
tp4567
a(I2013504
I1410
tp4568
a(I2053907
I1410
tp4569
a(I2115174
I1410
tp4570
a(I2274199
I1410
tp4571
a(I2539101
I1410
tp4572
a(I2633797
I1410
tp4573
a(I240447
I1409
tp4574
a(I492058
I1409
tp4575
a(I1087451
I1409
tp4576
a(I1320402
I1409
tp4577
a(I1416034
I1409
tp4578
a(I1444177
I1409
tp4579
a(I1492122
I1409
tp4580
a(I1494275
I1409
tp4581
a(I1611857
I1409
tp4582
a(I1693122
I1409
tp4583
a(I1772964
I1409
tp4584
a(I2048294
I1409
tp4585
a(I2320706
I1409
tp4586
a(I2386868
I1409
tp4587
a(I2422606
I1409
tp4588
a(I271453
I1408
tp4589
a(I286783
I1408
tp4590
a(I507519
I1408
tp4591
a(I543824
I1408
tp4592
a(I1104107
I1408
tp4593
a(I1187252
I1408
tp4594
a(I1888060
I1408
tp4595
a(I2055388
I1408
tp4596
a(I2162641
I1408
tp4597
a(I2582726
I1408
tp4598
a(I2590072
I1408
tp4599
a(I93124
I1407
tp4600
a(I502274
I1407
tp4601
a(I564403
I1407
tp4602
a(I982689
I1407
tp4603
a(I1255543
I1407
tp4604
a(I1449810
I1407
tp4605
a(I1452675
I1407
tp4606
a(I1486851
I1407
tp4607
a(I1560283
I1407
tp4608
a(I1937280
I1407
tp4609
a(I2097995
I1407
tp4610
a(I2499019
I1407
tp4611
a(I2557710
I1407
tp4612
a(I67769
I1406
tp4613
a(I190136
I1406
tp4614
a(I385102
I1406
tp4615
a(I388609
I1406
tp4616
a(I392077
I1406
tp4617
a(I1204865
I1406
tp4618
a(I1347991
I1406
tp4619
a(I1565082
I1406
tp4620
a(I2036365
I1406
tp4621
a(I2050590
I1406
tp4622
a(I2082864
I1406
tp4623
a(I2291750
I1406
tp4624
a(I2294110
I1406
tp4625
a(I2390609
I1406
tp4626
a(I220512
I1405
tp4627
a(I630153
I1405
tp4628
a(I844526
I1405
tp4629
a(I1175001
I1405
tp4630
a(I1228066
I1405
tp4631
a(I1306528
I1405
tp4632
a(I1653320
I1405
tp4633
a(I1704130
I1405
tp4634
a(I1740380
I1405
tp4635
a(I1860025
I1405
tp4636
a(I1860298
I1405
tp4637
a(I1863899
I1405
tp4638
a(I2035438
I1405
tp4639
a(I2216150
I1405
tp4640
a(I2247982
I1405
tp4641
a(I2407866
I1405
tp4642
a(I2490423
I1405
tp4643
a(I95194
I1404
tp4644
a(I209736
I1404
tp4645
a(I382138
I1404
tp4646
a(I475253
I1404
tp4647
a(I761379
I1404
tp4648
a(I851848
I1404
tp4649
a(I868990
I1404
tp4650
a(I1208622
I1404
tp4651
a(I1429631
I1404
tp4652
a(I1701322
I1404
tp4653
a(I2026928
I1404
tp4654
a(I2636781
I1404
tp4655
a(I168190
I1403
tp4656
a(I384188
I1403
tp4657
a(I1121725
I1403
tp4658
a(I1295473
I1403
tp4659
a(I1607300
I1403
tp4660
a(I1681124
I1403
tp4661
a(I1795018
I1403
tp4662
a(I1855590
I1403
tp4663
a(I1998128
I1403
tp4664
a(I2267735
I1403
tp4665
a(I2341658
I1403
tp4666
a(I2420828
I1403
tp4667
a(I2612104
I1403
tp4668
a(I223423
I1402
tp4669
a(I260616
I1402
tp4670
a(I400076
I1402
tp4671
a(I581989
I1402
tp4672
a(I1146632
I1402
tp4673
a(I1184388
I1402
tp4674
a(I1645514
I1402
tp4675
a(I1882992
I1402
tp4676
a(I2097277
I1402
tp4677
a(I2252455
I1402
tp4678
a(I2253160
I1402
tp4679
a(I2296193
I1402
tp4680
a(I2449919
I1402
tp4681
a(I2536028
I1402
tp4682
a(I2550101
I1402
tp4683
a(I2976
I1401
tp4684
a(I22718
I1401
tp4685
a(I234606
I1401
tp4686
a(I364238
I1401
tp4687
a(I786415
I1401
tp4688
a(I843387
I1401
tp4689
a(I936396
I1401
tp4690
a(I941600
I1401
tp4691
a(I1199611
I1401
tp4692
a(I1261789
I1401
tp4693
a(I1501018
I1401
tp4694
a(I1942005
I1401
tp4695
a(I2090792
I1401
tp4696
a(I2297654
I1401
tp4697
a(I2460025
I1401
tp4698
a(I2532100
I1401
tp4699
a(I310101
I1400
tp4700
a(I469045
I1400
tp4701
a(I671338
I1400
tp4702
a(I1144870
I1400
tp4703
a(I1147251
I1400
tp4704
a(I1803243
I1400
tp4705
a(I2095910
I1400
tp4706
a(I2129174
I1400
tp4707
a(I2463441
I1400
tp4708
a(I283468
I1399
tp4709
a(I375770
I1399
tp4710
a(I955706
I1399
tp4711
a(I987078
I1399
tp4712
a(I1362091
I1399
tp4713
a(I1366054
I1399
tp4714
a(I1679741
I1399
tp4715
a(I1687095
I1399
tp4716
a(I2482384
I1399
tp4717
a(I2490507
I1399
tp4718
a(I2604442
I1399
tp4719
a(I112320
I1398
tp4720
a(I158197
I1398
tp4721
a(I542006
I1398
tp4722
a(I894232
I1398
tp4723
a(I1646777
I1398
tp4724
a(I1860339
I1398
tp4725
a(I2567935
I1398
tp4726
a(I75818
I1397
tp4727
a(I128611
I1397
tp4728
a(I235691
I1397
tp4729
a(I381625
I1397
tp4730
a(I579707
I1397
tp4731
a(I1126751
I1397
tp4732
a(I1156403
I1397
tp4733
a(I1760730
I1397
tp4734
a(I1807245
I1397
tp4735
a(I2250552
I1397
tp4736
a(I2327386
I1397
tp4737
a(I2440605
I1397
tp4738
a(I2447861
I1397
tp4739
a(I95146
I1396
tp4740
a(I298221
I1396
tp4741
a(I516736
I1396
tp4742
a(I736013
I1396
tp4743
a(I919486
I1396
tp4744
a(I997772
I1396
tp4745
a(I1233312
I1396
tp4746
a(I1262628
I1396
tp4747
a(I1575939
I1396
tp4748
a(I1719780
I1396
tp4749
a(I1835080
I1396
tp4750
a(I2374451
I1396
tp4751
a(I46036
I1395
tp4752
a(I787052
I1395
tp4753
a(I1029833
I1395
tp4754
a(I1035650
I1395
tp4755
a(I1521774
I1395
tp4756
a(I1686134
I1395
tp4757
a(I1848170
I1395
tp4758
a(I1921815
I1395
tp4759
a(I1993625
I1395
tp4760
a(I2409398
I1395
tp4761
a(I2504147
I1395
tp4762
a(I492478
I1394
tp4763
a(I825002
I1394
tp4764
a(I1151483
I1394
tp4765
a(I1347528
I1394
tp4766
a(I2129120
I1394
tp4767
a(I2221430
I1394
tp4768
a(I2374726
I1394
tp4769
a(I62346
I1393
tp4770
a(I270702
I1393
tp4771
a(I354269
I1393
tp4772
a(I377907
I1393
tp4773
a(I398194
I1393
tp4774
a(I1146551
I1393
tp4775
a(I1358962
I1393
tp4776
a(I1505182
I1393
tp4777
a(I1820564
I1393
tp4778
a(I1905883
I1393
tp4779
a(I2140883
I1393
tp4780
a(I437371
I1392
tp4781
a(I524390
I1392
tp4782
a(I959020
I1392
tp4783
a(I1239496
I1392
tp4784
a(I1386737
I1392
tp4785
a(I1777474
I1392
tp4786
a(I1894043
I1392
tp4787
a(I2084213
I1392
tp4788
a(I2192288
I1392
tp4789
a(I2648589
I1392
tp4790
a(I124810
I1391
tp4791
a(I709905
I1391
tp4792
a(I973443
I1391
tp4793
a(I1240334
I1391
tp4794
a(I1270980
I1391
tp4795
a(I1418126
I1391
tp4796
a(I1813272
I1391
tp4797
a(I2364551
I1391
tp4798
a(I2426539
I1391
tp4799
a(I2464431
I1391
tp4800
a(I2489545
I1391
tp4801
a(I27434
I1390
tp4802
a(I119790
I1390
tp4803
a(I168892
I1390
tp4804
a(I303643
I1390
tp4805
a(I551489
I1390
tp4806
a(I554171
I1390
tp4807
a(I669635
I1390
tp4808
a(I1425723
I1390
tp4809
a(I2076358
I1390
tp4810
a(I2290508
I1390
tp4811
a(I2413875
I1390
tp4812
a(I2619718
I1390
tp4813
a(I398488
I1389
tp4814
a(I724224
I1389
tp4815
a(I799442
I1389
tp4816
a(I1586221
I1389
tp4817
a(I1672386
I1389
tp4818
a(I1684516
I1389
tp4819
a(I1880009
I1389
tp4820
a(I1895929
I1389
tp4821
a(I2059635
I1389
tp4822
a(I2641559
I1389
tp4823
a(I100495
I1388
tp4824
a(I225972
I1388
tp4825
a(I664809
I1388
tp4826
a(I684108
I1388
tp4827
a(I704117
I1388
tp4828
a(I1202962
I1388
tp4829
a(I1264009
I1388
tp4830
a(I1318951
I1388
tp4831
a(I1391586
I1388
tp4832
a(I1392598
I1388
tp4833
a(I1472689
I1388
tp4834
a(I1882180
I1388
tp4835
a(I1925832
I1388
tp4836
a(I2137371
I1388
tp4837
a(I2393632
I1388
tp4838
a(I2412596
I1388
tp4839
a(I2552047
I1388
tp4840
a(I227295
I1387
tp4841
a(I282390
I1387
tp4842
a(I505713
I1387
tp4843
a(I531125
I1387
tp4844
a(I856563
I1387
tp4845
a(I927849
I1387
tp4846
a(I1148103
I1387
tp4847
a(I1239121
I1387
tp4848
a(I1361167
I1387
tp4849
a(I1539389
I1387
tp4850
a(I1749706
I1387
tp4851
a(I1757577
I1387
tp4852
a(I269850
I1386
tp4853
a(I294330
I1386
tp4854
a(I460446
I1386
tp4855
a(I636273
I1386
tp4856
a(I1168143
I1386
tp4857
a(I1644686
I1386
tp4858
a(I1789382
I1386
tp4859
a(I1800320
I1386
tp4860
a(I1855317
I1386
tp4861
a(I1915183
I1386
tp4862
a(I2020252
I1386
tp4863
a(I2329196
I1386
tp4864
a(I2424587
I1386
tp4865
a(I84208
I1385
tp4866
a(I1207104
I1385
tp4867
a(I1472772
I1385
tp4868
a(I2105294
I1385
tp4869
a(I2133752
I1385
tp4870
a(I2239209
I1385
tp4871
a(I2313013
I1385
tp4872
a(I2395020
I1385
tp4873
a(I2510551
I1385
tp4874
a(I2562900
I1385
tp4875
a(I2625306
I1385
tp4876
a(I396153
I1384
tp4877
a(I794765
I1384
tp4878
a(I1126516
I1384
tp4879
a(I1297031
I1384
tp4880
a(I1449229
I1384
tp4881
a(I1885459
I1384
tp4882
a(I1937187
I1384
tp4883
a(I2081709
I1384
tp4884
a(I2122377
I1384
tp4885
a(I2204961
I1384
tp4886
a(I2496874
I1384
tp4887
a(I359063
I1383
tp4888
a(I639257
I1383
tp4889
a(I853918
I1383
tp4890
a(I1044851
I1383
tp4891
a(I1243196
I1383
tp4892
a(I1271040
I1383
tp4893
a(I1351706
I1383
tp4894
a(I1635708
I1383
tp4895
a(I1862352
I1383
tp4896
a(I2178203
I1383
tp4897
a(I2189638
I1383
tp4898
a(I2264371
I1383
tp4899
a(I2372364
I1383
tp4900
a(I2614527
I1383
tp4901
a(I182445
I1382
tp4902
a(I242425
I1382
tp4903
a(I312695
I1382
tp4904
a(I445900
I1382
tp4905
a(I612641
I1382
tp4906
a(I693771
I1382
tp4907
a(I722298
I1382
tp4908
a(I733746
I1382
tp4909
a(I784305
I1382
tp4910
a(I834131
I1382
tp4911
a(I956271
I1382
tp4912
a(I1500017
I1382
tp4913
a(I1784723
I1382
tp4914
a(I2006505
I1382
tp4915
a(I2179833
I1382
tp4916
a(I2241897
I1382
tp4917
a(I96133
I1381
tp4918
a(I136030
I1381
tp4919
a(I315894
I1381
tp4920
a(I350266
I1381
tp4921
a(I554192
I1381
tp4922
a(I589571
I1381
tp4923
a(I672919
I1381
tp4924
a(I763551
I1381
tp4925
a(I862850
I1381
tp4926
a(I1050232
I1381
tp4927
a(I1064554
I1381
tp4928
a(I1322233
I1381
tp4929
a(I1468972
I1381
tp4930
a(I1486636
I1381
tp4931
a(I2130244
I1381
tp4932
a(I2156074
I1381
tp4933
a(I2787
I1380
tp4934
a(I459772
I1380
tp4935
a(I682093
I1380
tp4936
a(I995497
I1380
tp4937
a(I1168424
I1380
tp4938
a(I1174079
I1380
tp4939
a(I1311888
I1380
tp4940
a(I1553270
I1380
tp4941
a(I2085981
I1380
tp4942
a(I2093590
I1380
tp4943
a(I2098138
I1380
tp4944
a(I113369
I1379
tp4945
a(I245371
I1379
tp4946
a(I558924
I1379
tp4947
a(I715339
I1379
tp4948
a(I877320
I1379
tp4949
a(I963962
I1379
tp4950
a(I1085488
I1379
tp4951
a(I1523671
I1379
tp4952
a(I2112383
I1379
tp4953
a(I2120968
I1379
tp4954
a(I2132254
I1379
tp4955
a(I2135939
I1379
tp4956
a(I2219187
I1379
tp4957
a(I2509644
I1379
tp4958
a(I100943
I1378
tp4959
a(I239178
I1378
tp4960
a(I267841
I1378
tp4961
a(I273541
I1378
tp4962
a(I326804
I1378
tp4963
a(I952381
I1378
tp4964
a(I2345454
I1378
tp4965
a(I2547219
I1378
tp4966
a(I357087
I1377
tp4967
a(I845921
I1377
tp4968
a(I872924
I1377
tp4969
a(I940806
I1377
tp4970
a(I1604357
I1377
tp4971
a(I1689683
I1377
tp4972
a(I1692069
I1377
tp4973
a(I1838480
I1377
tp4974
a(I1968862
I1377
tp4975
a(I1977128
I1377
tp4976
a(I2138746
I1377
tp4977
a(I2156165
I1377
tp4978
a(I2296816
I1377
tp4979
a(I2506564
I1377
tp4980
a(I2516525
I1377
tp4981
a(I2520834
I1377
tp4982
a(I2580792
I1377
tp4983
a(I2632868
I1377
tp4984
a(I512278
I1376
tp4985
a(I675407
I1376
tp4986
a(I1026162
I1376
tp4987
a(I1204294
I1376
tp4988
a(I1316922
I1376
tp4989
a(I1401233
I1376
tp4990
a(I1403686
I1376
tp4991
a(I1539697
I1376
tp4992
a(I1558352
I1376
tp4993
a(I1662724
I1376
tp4994
a(I1804819
I1376
tp4995
a(I1836545
I1376
tp4996
a(I1865329
I1376
tp4997
a(I2557152
I1376
tp4998
a(I133060
I1375
tp4999
a(I495271
I1375
tp5000
a.